---
triple:          'arm64-apple-darwin'
binary-path:     prog
relocations:
  - { offsetInCU: 0x1CE3, offset: 0x1CE3, size: 0x8, addend: 0x0, symName: __ZN3glm6detail15component_countINS_5tvec3IfLNS_9precisionE0EEEEEiRKT_, symObjAddr: 0x14D4, symBinAddr: 0x1000056E8, symSize: 0x24 }
  - { offsetInCU: 0x1D1A, offset: 0x1D1A, size: 0x8, addend: 0x0, symName: __ZN3glm6detail15component_countINS_5tvec4IfLNS_9precisionE0EEEEEiRKT_, symObjAddr: 0x2848, symBinAddr: 0x100006A5C, symSize: 0x24 }
  - { offsetInCU: 0x1DAA, offset: 0x1DAA, size: 0x8, addend: 0x0, symName: __ZN3glm6rotateIfLNS_9precisionE0EEENS_5tvec3IT_XT0_EEERKS4_RKS3_S6_, symObjAddr: 0x1F8, symBinAddr: 0x10000440C, symSize: 0xA4 }
  - { offsetInCU: 0x1E05, offset: 0x1E05, size: 0x8, addend: 0x0, symName: __ZN3glm9normalizeIfLNS_9precisionE0ENS_5tvec3EEET1_IT_XT0_EERKS5_, symObjAddr: 0x29C, symBinAddr: 0x1000044B0, symSize: 0x50 }
  - { offsetInCU: 0x1E4D, offset: 0x1E4D, size: 0x8, addend: 0x0, symName: __ZN3glm7radiansIfEET_S1_, symObjAddr: 0x2EC, symBinAddr: 0x100004500, symSize: 0x24 }
  - { offsetInCU: 0x1E82, offset: 0x1E82, size: 0x8, addend: 0x0, symName: __ZN3glm5crossIfLNS_9precisionE0EEENS_5tvec3IT_XT0_EEERKS4_S6_, symObjAddr: 0x34C, symBinAddr: 0x100004560, symSize: 0xC8 }
  - { offsetInCU: 0x1ECF, offset: 0x1ECF, size: 0x8, addend: 0x0, symName: __ZN3glmmiIfLNS_9precisionE0EEENS_5tvec3IT_XT0_EEERKS4_S6_, symObjAddr: 0x550, symBinAddr: 0x100004764, symSize: 0x8C }
  - { offsetInCU: 0x1F1F, offset: 0x1F1F, size: 0x8, addend: 0x0, symName: __ZN3glmmlIfLNS_9precisionE0EEENS_5tvec3IT_XT0_EEERKS4_RKS3_, symObjAddr: 0x5DC, symBinAddr: 0x1000047F0, symSize: 0x8C }
  - { offsetInCU: 0x1F6F, offset: 0x1F6F, size: 0x8, addend: 0x0, symName: __ZN3glmplIfLNS_9precisionE0EEENS_5tvec3IT_XT0_EEERKS4_S6_, symObjAddr: 0x6FC, symBinAddr: 0x100004910, symSize: 0x8C }
  - { offsetInCU: 0x1FBF, offset: 0x1FBF, size: 0x8, addend: 0x0, symName: __ZN3glm6lookAtIfLNS_9precisionE0EEENS_7tmat4x4IT_XT0_EEERKNS_5tvec3IS3_XT0_EEES8_S8_, symObjAddr: 0xB2C, symBinAddr: 0x100004D40, symSize: 0x41C }
  - { offsetInCU: 0x205D, offset: 0x205D, size: 0x8, addend: 0x0, symName: __ZN3glm11inversesqrtIfEET_S1_, symObjAddr: 0xF84, symBinAddr: 0x100005198, symSize: 0x30 }
  - { offsetInCU: 0x2092, offset: 0x2092, size: 0x8, addend: 0x0, symName: __ZN3glm3dotIfLNS_9precisionE0ENS_5tvec3EEET_RKT1_IS3_XT0_EES7_, symObjAddr: 0xFB4, symBinAddr: 0x1000051C8, symSize: 0x2C }
  - { offsetInCU: 0x20E8, offset: 0x20E8, size: 0x8, addend: 0x0, symName: __ZN3glmmlIfLNS_9precisionE0EEENS_5tvec3IT_XT0_EEERKS4_S6_, symObjAddr: 0x103C, symBinAddr: 0x100005250, symSize: 0x8C }
  - { offsetInCU: 0x2138, offset: 0x2138, size: 0x8, addend: 0x0, symName: __ZN3glmmlIfLNS_9precisionE0EEENS_7tmat3x3IT_XT0_EE8col_typeERKS4_RKNS4_8row_typeE, symObjAddr: 0x10C8, symBinAddr: 0x1000052DC, symSize: 0x1F4 }
  - { offsetInCU: 0x2188, offset: 0x2188, size: 0x8, addend: 0x0, symName: __ZN3glm6rotateIfLNS_9precisionE0EEENS_7tmat4x4IT_XT0_EEES3_RKNS_5tvec3IS3_XT0_EEE, symObjAddr: 0x12BC, symBinAddr: 0x1000054D0, symSize: 0x80 }
  - { offsetInCU: 0x21D5, offset: 0x21D5, size: 0x8, addend: 0x0, symName: __ZN3glm6rotateIfLNS_9precisionE0EEENS_7tmat4x4IT_XT0_EEERKS4_S3_RKNS_5tvec3IS3_XT0_EEE, symObjAddr: 0x150C, symBinAddr: 0x100005720, symSize: 0xD18 }
  - { offsetInCU: 0x2296, offset: 0x2296, size: 0x8, addend: 0x0, symName: __ZN3glmmlIfLNS_9precisionE0EEENS_5tvec3IT_XT0_EEERKS3_RKS4_, symObjAddr: 0x22A0, symBinAddr: 0x1000064B4, symSize: 0x8C }
  - { offsetInCU: 0x22E6, offset: 0x22E6, size: 0x8, addend: 0x0, symName: __ZN3glmplIfLNS_9precisionE0EEENS_5tvec4IT_XT0_EEERKS4_S6_, symObjAddr: 0x2520, symBinAddr: 0x100006734, symSize: 0x88 }
  - { offsetInCU: 0x2336, offset: 0x2336, size: 0x8, addend: 0x0, symName: __ZN3glmmlIfLNS_9precisionE0EEENS_5tvec4IT_XT0_EEERKS4_S3_, symObjAddr: 0x25A8, symBinAddr: 0x1000067BC, symSize: 0x78 }
  - { offsetInCU: 0x2664, offset: 0x2664, size: 0x8, addend: 0x0, symName: __ZN6Camera9MouseLookEii, symObjAddr: 0x0, symBinAddr: 0x100004214, symSize: 0x18C }
  - { offsetInCU: 0x2689, offset: 0x2689, size: 0x8, addend: 0x0, symName: __ZZN6Camera9MouseLookEiiE9firstLook, symObjAddr: 0x3C94, symBinAddr: 0x100028000, symSize: 0x0 }
  - { offsetInCU: 0x55E2, offset: 0x55E2, size: 0x8, addend: 0x0, symName: __ZNSt3__124__put_character_sequenceB7v160006IcNS_11char_traitsIcEEEERNS_13basic_ostreamIT_T0_EES7_PKS4_m, symObjAddr: 0x2FA8, symBinAddr: 0x1000071BC, symSize: 0x1EC }
  - { offsetInCU: 0x6F63, offset: 0x6F63, size: 0x8, addend: 0x0, symName: __ZNSt3__1lsB7v160006INS_11char_traitsIcEEEERNS_13basic_ostreamIcT_EES6_PKc, symObjAddr: 0xA14, symBinAddr: 0x100004C28, symSize: 0x48 }
  - { offsetInCU: 0x6FA9, offset: 0x6FA9, size: 0x8, addend: 0x0, symName: __ZNSt3__116__pad_and_outputB7v160006IcNS_11char_traitsIcEEEENS_19ostreambuf_iteratorIT_T0_EES6_PKS4_S8_S8_RNS_8ios_baseES4_, symObjAddr: 0x31E4, symBinAddr: 0x1000073F8, symSize: 0x240 }
  - { offsetInCU: 0x7078, offset: 0x7078, size: 0x8, addend: 0x0, symName: __ZNSt3__119__debug_db_insert_cB7v160006INS_12basic_stringIcNS_11char_traitsIcEENS_9allocatorIcEEEEEEvPT_, symObjAddr: 0x36A4, symBinAddr: 0x1000078B8, symSize: 0x10 }
  - { offsetInCU: 0x70A9, offset: 0x70A9, size: 0x8, addend: 0x0, symName: __ZNSt3__112__to_addressB7v160006IcEEPT_S2_, symObjAddr: 0x3770, symBinAddr: 0x100007984, symSize: 0x14 }
  - { offsetInCU: 0x7111, offset: 0x7111, size: 0x8, addend: 0x0, symName: __ZNSt3__19use_facetB7v160006INS_5ctypeIcEEEERKT_RKNS_6localeE, symObjAddr: 0x3A28, symBinAddr: 0x100007C3C, symSize: 0x2C }
  - { offsetInCU: 0x75E0, offset: 0x75E0, size: 0x8, addend: 0x0, symName: __ZNSt3__118__constexpr_strlenB7v160006EPKc, symObjAddr: 0x3AC0, symBinAddr: 0x100007CD4, symSize: 0x24 }
  - { offsetInCU: 0x9B3E, offset: 0x9B3E, size: 0x8, addend: 0x0, symName: __ZN3glm5tvec2IfLNS_9precisionE0EEC1IiiEERKT_RKT0_, symObjAddr: 0x18C, symBinAddr: 0x1000043A0, symSize: 0x3C }
  - { offsetInCU: 0x9B96, offset: 0x9B96, size: 0x8, addend: 0x0, symName: __ZN3glm5tvec2IfLNS_9precisionE0EEaSERKS2_, symObjAddr: 0x1C8, symBinAddr: 0x1000043DC, symSize: 0x30 }
  - { offsetInCU: 0x9BCA, offset: 0x9BCA, size: 0x8, addend: 0x0, symName: __ZN3glm5tvec3IfLNS_9precisionE0EEaSERKS2_, symObjAddr: 0x310, symBinAddr: 0x100004524, symSize: 0x3C }
  - { offsetInCU: 0x9BFE, offset: 0x9BFE, size: 0x8, addend: 0x0, symName: __ZN6Camera11MoveForwardEf, symObjAddr: 0x414, symBinAddr: 0x100004628, symSize: 0x54 }
  - { offsetInCU: 0x9C32, offset: 0x9C32, size: 0x8, addend: 0x0, symName: __ZN6Camera12MoveBackwardEf, symObjAddr: 0x468, symBinAddr: 0x10000467C, symSize: 0x54 }
  - { offsetInCU: 0x9C66, offset: 0x9C66, size: 0x8, addend: 0x0, symName: __ZN6Camera8MoveLeftEf, symObjAddr: 0x4BC, symBinAddr: 0x1000046D0, symSize: 0x94 }
  - { offsetInCU: 0x9CA8, offset: 0x9CA8, size: 0x8, addend: 0x0, symName: __ZN6Camera9MoveRightEf, symObjAddr: 0x668, symBinAddr: 0x10000487C, symSize: 0x94 }
  - { offsetInCU: 0x9CEA, offset: 0x9CEA, size: 0x8, addend: 0x0, symName: __ZN6Camera6MoveUpEf, symObjAddr: 0x788, symBinAddr: 0x10000499C, symSize: 0x28 }
  - { offsetInCU: 0x9D1E, offset: 0x9D1E, size: 0x8, addend: 0x0, symName: __ZN6Camera8MoveDownEf, symObjAddr: 0x7B0, symBinAddr: 0x1000049C4, symSize: 0x28 }
  - { offsetInCU: 0x9D52, offset: 0x9D52, size: 0x8, addend: 0x0, symName: __ZN6Camera20SetCameraEyePositionEfff, symObjAddr: 0x7D8, symBinAddr: 0x1000049EC, symSize: 0x38 }
  - { offsetInCU: 0x9DA2, offset: 0x9DA2, size: 0x8, addend: 0x0, symName: __ZN6Camera15GetEyeXPositionEv, symObjAddr: 0x810, symBinAddr: 0x100004A24, symSize: 0x18 }
  - { offsetInCU: 0x9DC8, offset: 0x9DC8, size: 0x8, addend: 0x0, symName: __ZN6Camera15GetEyeYPositionEv, symObjAddr: 0x828, symBinAddr: 0x100004A3C, symSize: 0x18 }
  - { offsetInCU: 0x9DEE, offset: 0x9DEE, size: 0x8, addend: 0x0, symName: __ZN6Camera15GetEyeZPositionEv, symObjAddr: 0x840, symBinAddr: 0x100004A54, symSize: 0x18 }
  - { offsetInCU: 0x9E14, offset: 0x9E14, size: 0x8, addend: 0x0, symName: __ZN6Camera17GetViewXDirectionEv, symObjAddr: 0x858, symBinAddr: 0x100004A6C, symSize: 0x18 }
  - { offsetInCU: 0x9E3A, offset: 0x9E3A, size: 0x8, addend: 0x0, symName: __ZN6Camera17GetViewYDirectionEv, symObjAddr: 0x870, symBinAddr: 0x100004A84, symSize: 0x18 }
  - { offsetInCU: 0x9E60, offset: 0x9E60, size: 0x8, addend: 0x0, symName: __ZN6Camera17GetViewZDirectionEv, symObjAddr: 0x888, symBinAddr: 0x100004A9C, symSize: 0x18 }
  - { offsetInCU: 0x9E86, offset: 0x9E86, size: 0x8, addend: 0x0, symName: __ZN6CameraC2Ev, symObjAddr: 0x8A0, symBinAddr: 0x100004AB4, symSize: 0x11C }
  - { offsetInCU: 0x9EB0, offset: 0x9EB0, size: 0x8, addend: 0x0, symName: __ZN3glm5tvec2IfLNS_9precisionE0EEC1Ev, symObjAddr: 0x9BC, symBinAddr: 0x100004BD0, symSize: 0x2C }
  - { offsetInCU: 0x9EDA, offset: 0x9EDA, size: 0x8, addend: 0x0, symName: __ZN3glm5tvec3IfLNS_9precisionE0EEC1Ev, symObjAddr: 0x9E8, symBinAddr: 0x100004BFC, symSize: 0x2C }
  - { offsetInCU: 0x9F04, offset: 0x9F04, size: 0x8, addend: 0x0, symName: __ZN3glm5tvec3IfLNS_9precisionE0EEC1ERKfS4_S4_, symObjAddr: 0xA5C, symBinAddr: 0x100004C70, symSize: 0x44 }
  - { offsetInCU: 0x9F58, offset: 0x9F58, size: 0x8, addend: 0x0, symName: __ZN6CameraC1Ev, symObjAddr: 0xAA0, symBinAddr: 0x100004CB4, symSize: 0x2C }
  - { offsetInCU: 0x9F82, offset: 0x9F82, size: 0x8, addend: 0x0, symName: __ZNK6Camera13GetViewMatrixEv, symObjAddr: 0xACC, symBinAddr: 0x100004CE0, symSize: 0x60 }
  - { offsetInCU: 0x9FA8, offset: 0x9FA8, size: 0x8, addend: 0x0, symName: __ZN3glm5tvec2IfLNS_9precisionE0EEC2IiiEERKT_RKT0_, symObjAddr: 0xF48, symBinAddr: 0x10000515C, symSize: 0x3C }
  - { offsetInCU: 0xA000, offset: 0xA000, size: 0x8, addend: 0x0, symName: __Z4sqrtB7v160006f, symObjAddr: 0xFE0, symBinAddr: 0x1000051F4, symSize: 0x18 }
  - { offsetInCU: 0xA02F, offset: 0xA02F, size: 0x8, addend: 0x0, symName: __ZN3glm6detail11compute_dotINS_5tvec3EfLNS_9precisionE0EE4callERKNS2_IfLS3_0EEES7_, symObjAddr: 0xFF8, symBinAddr: 0x10000520C, symSize: 0x44 }
  - { offsetInCU: 0xA06C, offset: 0xA06C, size: 0x8, addend: 0x0, symName: __ZN3glm7tmat3x3IfLNS_9precisionE0EEC1ERKNS_7tmat4x4IfLS1_0EEE, symObjAddr: 0x133C, symBinAddr: 0x100005550, symSize: 0x34 }
  - { offsetInCU: 0xA0A4, offset: 0xA0A4, size: 0x8, addend: 0x0, symName: __ZN3glm7tmat4x4IfLNS_9precisionE0EED1Ev, symObjAddr: 0x1370, symBinAddr: 0x100005584, symSize: 0x2C }
  - { offsetInCU: 0xA0CF, offset: 0xA0CF, size: 0x8, addend: 0x0, symName: __ZNK3glm7tmat3x3IfLNS_9precisionE0EEixEi, symObjAddr: 0x139C, symBinAddr: 0x1000055B0, symSize: 0x80 }
  - { offsetInCU: 0xA103, offset: 0xA103, size: 0x8, addend: 0x0, symName: __ZNK3glm5tvec3IfLNS_9precisionE0EEixEi, symObjAddr: 0x141C, symBinAddr: 0x100005630, symSize: 0xA4 }
  - { offsetInCU: 0xA138, offset: 0xA138, size: 0x8, addend: 0x0, symName: __ZNK3glm7tmat3x3IfLNS_9precisionE0EE6lengthEv, symObjAddr: 0x14C0, symBinAddr: 0x1000056D4, symSize: 0x14 }
  - { offsetInCU: 0xA15F, offset: 0xA15F, size: 0x8, addend: 0x0, symName: __ZNK3glm5tvec3IfLNS_9precisionE0EE6lengthEv, symObjAddr: 0x14F8, symBinAddr: 0x10000570C, symSize: 0x14 }
  - { offsetInCU: 0xA185, offset: 0xA185, size: 0x8, addend: 0x0, symName: __ZN3glm7tmat4x4IfLNS_9precisionE0EEC1ERKf, symObjAddr: 0x2224, symBinAddr: 0x100006438, symSize: 0x34 }
  - { offsetInCU: 0xA1BD, offset: 0xA1BD, size: 0x8, addend: 0x0, symName: __Z3cosB7v160006f, symObjAddr: 0x2258, symBinAddr: 0x10000646C, symSize: 0x24 }
  - { offsetInCU: 0xA1EB, offset: 0xA1EB, size: 0x8, addend: 0x0, symName: __Z3sinB7v160006f, symObjAddr: 0x227C, symBinAddr: 0x100006490, symSize: 0x24 }
  - { offsetInCU: 0xA219, offset: 0xA219, size: 0x8, addend: 0x0, symName: __ZN3glm7tmat4x4IfLNS_9precisionE0EEC1ENS_4ctorE, symObjAddr: 0x232C, symBinAddr: 0x100006540, symSize: 0x34 }
  - { offsetInCU: 0xA24E, offset: 0xA24E, size: 0x8, addend: 0x0, symName: __ZN3glm5tvec3IfLNS_9precisionE0EEixEi, symObjAddr: 0x2360, symBinAddr: 0x100006574, symSize: 0xA4 }
  - { offsetInCU: 0xA283, offset: 0xA283, size: 0x8, addend: 0x0, symName: __ZN3glm7tmat4x4IfLNS_9precisionE0EEixEi, symObjAddr: 0x2404, symBinAddr: 0x100006618, symSize: 0x78 }
  - { offsetInCU: 0xA2B7, offset: 0xA2B7, size: 0x8, addend: 0x0, symName: __ZN3glm5tvec4IfLNS_9precisionE0EEixEi, symObjAddr: 0x247C, symBinAddr: 0x100006690, symSize: 0xA4 }
  - { offsetInCU: 0xA2EC, offset: 0xA2EC, size: 0x8, addend: 0x0, symName: __ZNK3glm7tmat4x4IfLNS_9precisionE0EEixEi, symObjAddr: 0x2620, symBinAddr: 0x100006834, symSize: 0x78 }
  - { offsetInCU: 0xA320, offset: 0xA320, size: 0x8, addend: 0x0, symName: __ZN3glm5tvec4IfLNS_9precisionE0EEaSERKS2_, symObjAddr: 0x2698, symBinAddr: 0x1000068AC, symSize: 0x48 }
  - { offsetInCU: 0xA356, offset: 0xA356, size: 0x8, addend: 0x0, symName: __ZN3glm5tvec4IfLNS_9precisionE0EED1Ev, symObjAddr: 0x26E0, symBinAddr: 0x1000068F4, symSize: 0x2C }
  - { offsetInCU: 0xA37E, offset: 0xA37E, size: 0x8, addend: 0x0, symName: __ZN3glm7tmat4x4IfLNS_9precisionE0EEC2ENS_4ctorE, symObjAddr: 0x270C, symBinAddr: 0x100006920, symSize: 0xD4 }
  - { offsetInCU: 0xA3B3, offset: 0xA3B3, size: 0x8, addend: 0x0, symName: __ZN3glm5tvec4IfLNS_9precisionE0EEC1Ev, symObjAddr: 0x27E0, symBinAddr: 0x1000069F4, symSize: 0x2C }
  - { offsetInCU: 0xA3DD, offset: 0xA3DD, size: 0x8, addend: 0x0, symName: __ZN3glm5tvec4IfLNS_9precisionE0EEC2Ev, symObjAddr: 0x280C, symBinAddr: 0x100006A20, symSize: 0x28 }
  - { offsetInCU: 0xA408, offset: 0xA408, size: 0x8, addend: 0x0, symName: __ZNK3glm7tmat4x4IfLNS_9precisionE0EE6lengthEv, symObjAddr: 0x2834, symBinAddr: 0x100006A48, symSize: 0x14 }
  - { offsetInCU: 0xA42F, offset: 0xA42F, size: 0x8, addend: 0x0, symName: __ZNK3glm5tvec4IfLNS_9precisionE0EE6lengthEv, symObjAddr: 0x286C, symBinAddr: 0x100006A80, symSize: 0x14 }
  - { offsetInCU: 0xA455, offset: 0xA455, size: 0x8, addend: 0x0, symName: __ZN3glm5tvec4IfLNS_9precisionE0EEC1Effff, symObjAddr: 0x2880, symBinAddr: 0x100006A94, symSize: 0x4C }
  - { offsetInCU: 0xA4B7, offset: 0xA4B7, size: 0x8, addend: 0x0, symName: __ZN3glm5tvec4IfLNS_9precisionE0EEC2Effff, symObjAddr: 0x28CC, symBinAddr: 0x100006AE0, symSize: 0x44 }
  - { offsetInCU: 0xA51A, offset: 0xA51A, size: 0x8, addend: 0x0, symName: __ZN3glm5tvec4IfLNS_9precisionE0EED2Ev, symObjAddr: 0x2910, symBinAddr: 0x100006B24, symSize: 0x14 }
  - { offsetInCU: 0xA542, offset: 0xA542, size: 0x8, addend: 0x0, symName: __ZN3glm7tmat4x4IfLNS_9precisionE0EEC2ERKf, symObjAddr: 0x2924, symBinAddr: 0x100006B38, symSize: 0x20C }
  - { offsetInCU: 0xA57A, offset: 0xA57A, size: 0x8, addend: 0x0, symName: __ZN3glm5tvec4IfLNS_9precisionE0EEC1IfiiiEET_T0_T1_T2_, symObjAddr: 0x2B30, symBinAddr: 0x100006D44, symSize: 0x4C }
  - { offsetInCU: 0xA600, offset: 0xA600, size: 0x8, addend: 0x0, symName: __ZN3glm5tvec4IfLNS_9precisionE0EEC1IifiiEET_T0_T1_T2_, symObjAddr: 0x2B7C, symBinAddr: 0x100006D90, symSize: 0x4C }
  - { offsetInCU: 0xA686, offset: 0xA686, size: 0x8, addend: 0x0, symName: __ZN3glm5tvec4IfLNS_9precisionE0EEC1IiifiEET_T0_T1_T2_, symObjAddr: 0x2BC8, symBinAddr: 0x100006DDC, symSize: 0x4C }
  - { offsetInCU: 0xA70C, offset: 0xA70C, size: 0x8, addend: 0x0, symName: __ZN3glm5tvec4IfLNS_9precisionE0EEC1IiiifEET_T0_T1_T2_, symObjAddr: 0x2C14, symBinAddr: 0x100006E28, symSize: 0x4C }
  - { offsetInCU: 0xA792, offset: 0xA792, size: 0x8, addend: 0x0, symName: __ZN3glm5tvec4IfLNS_9precisionE0EEC2IfiiiEET_T0_T1_T2_, symObjAddr: 0x2C60, symBinAddr: 0x100006E74, symSize: 0x50 }
  - { offsetInCU: 0xA818, offset: 0xA818, size: 0x8, addend: 0x0, symName: __ZN3glm5tvec4IfLNS_9precisionE0EEC2IifiiEET_T0_T1_T2_, symObjAddr: 0x2CB0, symBinAddr: 0x100006EC4, symSize: 0x50 }
  - { offsetInCU: 0xA89E, offset: 0xA89E, size: 0x8, addend: 0x0, symName: __ZN3glm5tvec4IfLNS_9precisionE0EEC2IiifiEET_T0_T1_T2_, symObjAddr: 0x2D00, symBinAddr: 0x100006F14, symSize: 0x50 }
  - { offsetInCU: 0xA924, offset: 0xA924, size: 0x8, addend: 0x0, symName: __ZN3glm5tvec4IfLNS_9precisionE0EEC2IiiifEET_T0_T1_T2_, symObjAddr: 0x2D50, symBinAddr: 0x100006F64, symSize: 0x50 }
  - { offsetInCU: 0xA9AA, offset: 0xA9AA, size: 0x8, addend: 0x0, symName: __ZN3glm7tmat3x3IfLNS_9precisionE0EEC2ERKNS_7tmat4x4IfLS1_0EEE, symObjAddr: 0x2DA0, symBinAddr: 0x100006FB4, symSize: 0xF0 }
  - { offsetInCU: 0xA9E2, offset: 0xA9E2, size: 0x8, addend: 0x0, symName: __ZN3glm5tvec3IfLNS_9precisionE0EEC1IfLS1_0EEERKNS_5tvec4IT_XT0_EEE, symObjAddr: 0x2E90, symBinAddr: 0x1000070A4, symSize: 0x34 }
  - { offsetInCU: 0xAA2D, offset: 0xAA2D, size: 0x8, addend: 0x0, symName: __ZN3glm5tvec3IfLNS_9precisionE0EEC2IfLS1_0EEERKNS_5tvec4IT_XT0_EEE, symObjAddr: 0x2EC4, symBinAddr: 0x1000070D8, symSize: 0x3C }
  - { offsetInCU: 0xAA78, offset: 0xAA78, size: 0x8, addend: 0x0, symName: __ZN3glm7tmat4x4IfLNS_9precisionE0EED2Ev, symObjAddr: 0x2F00, symBinAddr: 0x100007114, symSize: 0x64 }
  - { offsetInCU: 0xAAA2, offset: 0xAAA2, size: 0x8, addend: 0x0, symName: __ZN3glm5tvec2IfLNS_9precisionE0EEC2Ev, symObjAddr: 0x2F64, symBinAddr: 0x100007178, symSize: 0x20 }
  - { offsetInCU: 0xAACC, offset: 0xAACC, size: 0x8, addend: 0x0, symName: __ZN3glm5tvec3IfLNS_9precisionE0EEC2Ev, symObjAddr: 0x2F84, symBinAddr: 0x100007198, symSize: 0x24 }
  - { offsetInCU: 0xAAF7, offset: 0xAAF7, size: 0x8, addend: 0x0, symName: __ZNSt3__111char_traitsIcE6lengthEPKc, symObjAddr: 0x3194, symBinAddr: 0x1000073A8, symSize: 0x34 }
  - { offsetInCU: 0xAB37, offset: 0xAB37, size: 0x8, addend: 0x0, symName: __ZNKSt3__113basic_ostreamIcNS_11char_traitsIcEEE6sentrycvbB7v160006Ev, symObjAddr: 0x31C8, symBinAddr: 0x1000073DC, symSize: 0x1C }
  - { offsetInCU: 0xAB5C, offset: 0xAB5C, size: 0x8, addend: 0x0, symName: __ZNSt3__119ostreambuf_iteratorIcNS_11char_traitsIcEEEC1B7v160006ERNS_13basic_ostreamIcS2_EE, symObjAddr: 0x3424, symBinAddr: 0x100007638, symSize: 0x34 }
  - { offsetInCU: 0xAB93, offset: 0xAB93, size: 0x8, addend: 0x0, symName: __ZNKSt3__18ios_base5flagsB7v160006Ev, symObjAddr: 0x3458, symBinAddr: 0x10000766C, symSize: 0x18 }
  - { offsetInCU: 0xABBA, offset: 0xABBA, size: 0x8, addend: 0x0, symName: __ZNKSt3__19basic_iosIcNS_11char_traitsIcEEE4fillB7v160006Ev, symObjAddr: 0x3470, symBinAddr: 0x100007684, symSize: 0x64 }
  - { offsetInCU: 0xABE1, offset: 0xABE1, size: 0x8, addend: 0x0, symName: __ZNKSt3__119ostreambuf_iteratorIcNS_11char_traitsIcEEE6failedB7v160006Ev, symObjAddr: 0x34D4, symBinAddr: 0x1000076E8, symSize: 0x24 }
  - { offsetInCU: 0xAC06, offset: 0xAC06, size: 0x8, addend: 0x0, symName: __ZNSt3__19basic_iosIcNS_11char_traitsIcEEE8setstateB7v160006Ej, symObjAddr: 0x34F8, symBinAddr: 0x10000770C, symSize: 0x2C }
  - { offsetInCU: 0xAC3A, offset: 0xAC3A, size: 0x8, addend: 0x0, symName: __ZNKSt3__18ios_base5widthB7v160006Ev, symObjAddr: 0x3530, symBinAddr: 0x100007744, symSize: 0x18 }
  - { offsetInCU: 0xAC61, offset: 0xAC61, size: 0x8, addend: 0x0, symName: __ZNSt3__115basic_streambufIcNS_11char_traitsIcEEE5sputnB7v160006EPKcl, symObjAddr: 0x3548, symBinAddr: 0x10000775C, symSize: 0x3C }
  - { offsetInCU: 0xACA2, offset: 0xACA2, size: 0x8, addend: 0x0, symName: __ZNSt3__112basic_stringIcNS_11char_traitsIcEENS_9allocatorIcEEEC1B7v160006Emc, symObjAddr: 0x3584, symBinAddr: 0x100007798, symSize: 0x3C }
  - { offsetInCU: 0xACE9, offset: 0xACE9, size: 0x8, addend: 0x0, symName: __ZNSt3__112basic_stringIcNS_11char_traitsIcEENS_9allocatorIcEEE4dataB7v160006Ev, symObjAddr: 0x35C0, symBinAddr: 0x1000077D4, symSize: 0x28 }
  - { offsetInCU: 0xAD0E, offset: 0xAD0E, size: 0x8, addend: 0x0, symName: __ZNSt3__18ios_base5widthB7v160006El, symObjAddr: 0x35E8, symBinAddr: 0x1000077FC, symSize: 0x2C }
  - { offsetInCU: 0xAD53, offset: 0xAD53, size: 0x8, addend: 0x0, symName: __ZNSt3__112basic_stringIcNS_11char_traitsIcEENS_9allocatorIcEEEC2B7v160006Emc, symObjAddr: 0x3614, symBinAddr: 0x100007828, symSize: 0x54 }
  - { offsetInCU: 0xAD9F, offset: 0xAD9F, size: 0x8, addend: 0x0, symName: __ZNSt3__117__compressed_pairINS_12basic_stringIcNS_11char_traitsIcEENS_9allocatorIcEEE5__repES5_EC1B7v160006INS_18__default_init_tagESA_EEOT_OT0_, symObjAddr: 0x3668, symBinAddr: 0x10000787C, symSize: 0x3C }
  - { offsetInCU: 0xADF6, offset: 0xADF6, size: 0x8, addend: 0x0, symName: __ZNSt3__117__compressed_pairINS_12basic_stringIcNS_11char_traitsIcEENS_9allocatorIcEEE5__repES5_EC2B7v160006INS_18__default_init_tagESA_EEOT_OT0_, symObjAddr: 0x36B4, symBinAddr: 0x1000078C8, symSize: 0x3C }
  - { offsetInCU: 0xAE4D, offset: 0xAE4D, size: 0x8, addend: 0x0, symName: __ZNSt3__122__compressed_pair_elemINS_12basic_stringIcNS_11char_traitsIcEENS_9allocatorIcEEE5__repELi0ELb0EEC2B7v160006ENS_18__default_init_tagE, symObjAddr: 0x36F0, symBinAddr: 0x100007904, symSize: 0x14 }
  - { offsetInCU: 0xAE81, offset: 0xAE81, size: 0x8, addend: 0x0, symName: __ZNSt3__122__compressed_pair_elemINS_9allocatorIcEELi1ELb1EEC2B7v160006ENS_18__default_init_tagE, symObjAddr: 0x3704, symBinAddr: 0x100007918, symSize: 0x2C }
  - { offsetInCU: 0xAEB5, offset: 0xAEB5, size: 0x8, addend: 0x0, symName: __ZNSt3__19allocatorIcEC2B7v160006Ev, symObjAddr: 0x3730, symBinAddr: 0x100007944, symSize: 0x2C }
  - { offsetInCU: 0xAEDE, offset: 0xAEDE, size: 0x8, addend: 0x0, symName: __ZNSt3__116__non_trivial_ifILb1ENS_9allocatorIcEEEC2B7v160006Ev, symObjAddr: 0x375C, symBinAddr: 0x100007970, symSize: 0x14 }
  - { offsetInCU: 0xAF07, offset: 0xAF07, size: 0x8, addend: 0x0, symName: __ZNSt3__112basic_stringIcNS_11char_traitsIcEENS_9allocatorIcEEE13__get_pointerB7v160006Ev, symObjAddr: 0x3784, symBinAddr: 0x100007998, symSize: 0x54 }
  - { offsetInCU: 0xAF2C, offset: 0xAF2C, size: 0x8, addend: 0x0, symName: __ZNKSt3__112basic_stringIcNS_11char_traitsIcEENS_9allocatorIcEEE9__is_longB7v160006Ev, symObjAddr: 0x37D8, symBinAddr: 0x1000079EC, symSize: 0x38 }
  - { offsetInCU: 0xAF51, offset: 0xAF51, size: 0x8, addend: 0x0, symName: __ZNSt3__112basic_stringIcNS_11char_traitsIcEENS_9allocatorIcEEE18__get_long_pointerB7v160006Ev, symObjAddr: 0x3810, symBinAddr: 0x100007A24, symSize: 0x28 }
  - { offsetInCU: 0xAF76, offset: 0xAF76, size: 0x8, addend: 0x0, symName: __ZNSt3__112basic_stringIcNS_11char_traitsIcEENS_9allocatorIcEEE19__get_short_pointerB7v160006Ev, symObjAddr: 0x3838, symBinAddr: 0x100007A4C, symSize: 0x28 }
  - { offsetInCU: 0xAF9B, offset: 0xAF9B, size: 0x8, addend: 0x0, symName: __ZNKSt3__117__compressed_pairINS_12basic_stringIcNS_11char_traitsIcEENS_9allocatorIcEEE5__repES5_E5firstB7v160006Ev, symObjAddr: 0x3860, symBinAddr: 0x100007A74, symSize: 0x24 }
  - { offsetInCU: 0xAFC0, offset: 0xAFC0, size: 0x8, addend: 0x0, symName: __ZNKSt3__122__compressed_pair_elemINS_12basic_stringIcNS_11char_traitsIcEENS_9allocatorIcEEE5__repELi0ELb0EE5__getB7v160006Ev, symObjAddr: 0x3884, symBinAddr: 0x100007A98, symSize: 0x14 }
  - { offsetInCU: 0xAFE5, offset: 0xAFE5, size: 0x8, addend: 0x0, symName: __ZNSt3__117__compressed_pairINS_12basic_stringIcNS_11char_traitsIcEENS_9allocatorIcEEE5__repES5_E5firstB7v160006Ev, symObjAddr: 0x3898, symBinAddr: 0x100007AAC, symSize: 0x24 }
  - { offsetInCU: 0xB00A, offset: 0xB00A, size: 0x8, addend: 0x0, symName: __ZNSt3__122__compressed_pair_elemINS_12basic_stringIcNS_11char_traitsIcEENS_9allocatorIcEEE5__repELi0ELb0EE5__getB7v160006Ev, symObjAddr: 0x38BC, symBinAddr: 0x100007AD0, symSize: 0x14 }
  - { offsetInCU: 0xB02F, offset: 0xB02F, size: 0x8, addend: 0x0, symName: __ZNSt3__114pointer_traitsIPcE10pointer_toB7v160006ERc, symObjAddr: 0x38D0, symBinAddr: 0x100007AE4, symSize: 0x14 }
  - { offsetInCU: 0xB052, offset: 0xB052, size: 0x8, addend: 0x0, symName: __ZNSt3__119ostreambuf_iteratorIcNS_11char_traitsIcEEEC2B7v160006ERNS_13basic_ostreamIcS2_EE, symObjAddr: 0x38E4, symBinAddr: 0x100007AF8, symSize: 0x54 }
  - { offsetInCU: 0xB089, offset: 0xB089, size: 0x8, addend: 0x0, symName: __ZNKSt3__19basic_iosIcNS_11char_traitsIcEEE5rdbufB7v160006Ev, symObjAddr: 0x3938, symBinAddr: 0x100007B4C, symSize: 0x24 }
  - { offsetInCU: 0xB0B0, offset: 0xB0B0, size: 0x8, addend: 0x0, symName: __ZNKSt3__18ios_base5rdbufB7v160006Ev, symObjAddr: 0x395C, symBinAddr: 0x100007B70, symSize: 0x18 }
  - { offsetInCU: 0xB0D5, offset: 0xB0D5, size: 0x8, addend: 0x0, symName: __ZNSt3__111char_traitsIcE11eq_int_typeEii, symObjAddr: 0x3974, symBinAddr: 0x100007B88, symSize: 0x28 }
  - { offsetInCU: 0xB106, offset: 0xB106, size: 0x8, addend: 0x0, symName: __ZNSt3__111char_traitsIcE3eofEv, symObjAddr: 0x399C, symBinAddr: 0x100007BB0, symSize: 0x8 }
  - { offsetInCU: 0xB11A, offset: 0xB11A, size: 0x8, addend: 0x0, symName: __ZNKSt3__19basic_iosIcNS_11char_traitsIcEEE5widenB7v160006Ec, symObjAddr: 0x39A4, symBinAddr: 0x100007BB8, symSize: 0x84 }
  - { offsetInCU: 0xB187, offset: 0xB187, size: 0x8, addend: 0x0, symName: __ZNKSt3__15ctypeIcE5widenB7v160006Ec, symObjAddr: 0x3A54, symBinAddr: 0x100007C68, symSize: 0x38 }
  - { offsetInCU: 0xB1BB, offset: 0xB1BB, size: 0x8, addend: 0x0, symName: __ZNSt3__18ios_base8setstateB7v160006Ej, symObjAddr: 0x3A8C, symBinAddr: 0x100007CA0, symSize: 0x34 }
  - { offsetInCU: 0xB1F0, offset: 0xB1F0, size: 0x8, addend: 0x0, symName: __ZN3glm5tvec3IfLNS_9precisionE0EEC2ERKfS4_S4_, symObjAddr: 0x3AE4, symBinAddr: 0x100007CF8, symSize: 0x44 }
  - { offsetInCU: 0x10AA4, offset: 0x1BD74, size: 0x8, addend: 0x0, symName: __ZNSt3__1lsB7v160006IcNS_11char_traitsIcEENS_9allocatorIcEEEERNS_13basic_ostreamIT_T0_EES9_RKNS_12basic_stringIS6_S7_T1_EE, symObjAddr: 0xEA8, symBinAddr: 0x100008B9C, symSize: 0x4C }
  - { offsetInCU: 0x118F8, offset: 0x1CBC8, size: 0x8, addend: 0x0, symName: __ZNSt3__14endlB7v160006IcNS_11char_traitsIcEEEERNS_13basic_ostreamIT_T0_EES7_, symObjAddr: 0x10B8, symBinAddr: 0x100008DAC, symSize: 0x58 }
  - { offsetInCU: 0x11938, offset: 0x1CC08, size: 0x8, addend: 0x0, symName: __ZNSt3__17getlineB7v160006IcNS_11char_traitsIcEENS_9allocatorIcEEEERNS_13basic_istreamIT_T0_EES9_RNS_12basic_stringIS6_S7_T1_EE, symObjAddr: 0x1168, symBinAddr: 0x100008E5C, symSize: 0x5C }
  - { offsetInCU: 0x11D83, offset: 0x1D053, size: 0x8, addend: 0x0, symName: __ZNSt3__1rsB7v160006IcNS_11char_traitsIcEENS_9allocatorIcEEEERNS_13basic_istreamIT_T0_EES9_RNS_12basic_stringIS6_S7_T1_EE, symObjAddr: 0x1394, symBinAddr: 0x100009088, symSize: 0x30C }
  - { offsetInCU: 0x11E50, offset: 0x1D120, size: 0x8, addend: 0x0, symName: __ZNSt3__1eqB7v160006IcNS_11char_traitsIcEENS_9allocatorIcEEEEbRKNS_12basic_stringIT_T0_T1_EEPKS6_, symObjAddr: 0x16A0, symBinAddr: 0x100009394, symSize: 0xAC }
  - { offsetInCU: 0x11EB7, offset: 0x1D187, size: 0x8, addend: 0x0, symName: __ZNSt3__17getlineB7v160006IcNS_11char_traitsIcEENS_9allocatorIcEEEERNS_13basic_istreamIT_T0_EES9_RNS_12basic_stringIS6_S7_T1_EES6_, symObjAddr: 0x1850, symBinAddr: 0x100009518, symSize: 0x234 }
  - { offsetInCU: 0x11F8B, offset: 0x1D25B, size: 0x8, addend: 0x0, symName: __ZNSt3__119__libcpp_deallocateB7v160006EPvmm, symObjAddr: 0x2344, symBinAddr: 0x100009E00, symSize: 0x60 }
  - { offsetInCU: 0x11FF2, offset: 0x1D2C2, size: 0x8, addend: 0x0, symName: __ZNSt3__124__is_overaligned_for_newB7v160006Em, symObjAddr: 0x23A4, symBinAddr: 0x100009E60, symSize: 0x20 }
  - { offsetInCU: 0x12020, offset: 0x1D2F0, size: 0x8, addend: 0x0, symName: __ZNSt3__127__do_deallocate_handle_sizeB7v160006IJSt11align_val_tEEEvPvmDpT_, symObjAddr: 0x23C4, symBinAddr: 0x100009E80, symSize: 0x30 }
  - { offsetInCU: 0x12076, offset: 0x1D346, size: 0x8, addend: 0x0, symName: __ZNSt3__127__do_deallocate_handle_sizeB7v160006IJEEEvPvmDpT_, symObjAddr: 0x23F4, symBinAddr: 0x100009EB0, symSize: 0x28 }
  - { offsetInCU: 0x120B6, offset: 0x1D386, size: 0x8, addend: 0x0, symName: __ZNSt3__124__libcpp_operator_deleteB7v160006IJPvSt11align_val_tEEEvDpT_, symObjAddr: 0x241C, symBinAddr: 0x100009ED8, symSize: 0x2C }
  - { offsetInCU: 0x12103, offset: 0x1D3D3, size: 0x8, addend: 0x0, symName: __ZNSt3__124__libcpp_operator_deleteB7v160006IJPvEEEvDpT_, symObjAddr: 0x2448, symBinAddr: 0x100009F04, symSize: 0x24 }
  - { offsetInCU: 0x1213B, offset: 0x1D40B, size: 0x8, addend: 0x0, symName: __ZNSt3__119__debug_db_insert_cB7v160006INS_6vectorI6VertexNS_9allocatorIS2_EEEEEEvPT_, symObjAddr: 0x2634, symBinAddr: 0x10000A0DC, symSize: 0x10 }
  - { offsetInCU: 0x1216C, offset: 0x1D43C, size: 0x8, addend: 0x0, symName: __ZNSt3__119__debug_db_insert_cB7v160006INS_6vectorI8TriangleNS_9allocatorIS2_EEEEEEvPT_, symObjAddr: 0x27A0, symBinAddr: 0x10000A248, symSize: 0x10 }
  - { offsetInCU: 0x1219D, offset: 0x1D46D, size: 0x8, addend: 0x0, symName: __ZNSt3__118__debug_db_erase_cB7v160006INS_6vectorI6VertexNS_9allocatorIS2_EEEEEEvPT_, symObjAddr: 0x2A80, symBinAddr: 0x10000A528, symSize: 0x10 }
  - { offsetInCU: 0x121CE, offset: 0x1D49E, size: 0x8, addend: 0x0, symName: __ZNSt3__112__to_addressB7v160006I6VertexEEPT_S3_, symObjAddr: 0x2B9C, symBinAddr: 0x10000A644, symSize: 0x14 }
  - { offsetInCU: 0x12203, offset: 0x1D4D3, size: 0x8, addend: 0x0, symName: __ZNSt3__118__debug_db_erase_cB7v160006INS_6vectorI8TriangleNS_9allocatorIS2_EEEEEEvPT_, symObjAddr: 0x2F60, symBinAddr: 0x10000AA08, symSize: 0x10 }
  - { offsetInCU: 0x12234, offset: 0x1D504, size: 0x8, addend: 0x0, symName: __ZNSt3__112__to_addressB7v160006I8TriangleEEPT_S3_, symObjAddr: 0x30A4, symBinAddr: 0x10000AB4C, symSize: 0x14 }
  - { offsetInCU: 0x12269, offset: 0x1D539, size: 0x8, addend: 0x0, symName: __ZNSt3__122__make_exception_guardB7v160006INS_6vectorI6VertexNS_9allocatorIS2_EEE16__destroy_vectorEEENS_28__exception_guard_exceptionsIT_EES8_, symObjAddr: 0x33E4, symBinAddr: 0x10000AE8C, symSize: 0x40 }
  - { offsetInCU: 0x1229E, offset: 0x1D56E, size: 0x8, addend: 0x0, symName: __ZNSt3__119__allocate_at_leastB7v160006INS_9allocatorI6VertexEEEENS_19__allocation_resultINS_16allocator_traitsIT_E7pointerEEERS6_m, symObjAddr: 0x3714, symBinAddr: 0x10000B1BC, symSize: 0x40 }
  - { offsetInCU: 0x122E1, offset: 0x1D5B1, size: 0x8, addend: 0x0, symName: __ZNSt3__13minB7v160006ImEERKT_S3_S3_, symObjAddr: 0x3844, symBinAddr: 0x10000B2EC, symSize: 0x2C }
  - { offsetInCU: 0x1250E, offset: 0x1D7DE, size: 0x8, addend: 0x0, symName: __ZNSt3__13minB7v160006ImNS_6__lessImmEEEERKT_S5_S5_T0_, symObjAddr: 0x38A8, symBinAddr: 0x10000B350, symSize: 0x54 }
  - { offsetInCU: 0x125A3, offset: 0x1D873, size: 0x8, addend: 0x0, symName: __ZNSt3__120__throw_length_errorB7v160006EPKc, symObjAddr: 0x3950, symBinAddr: 0x10000B3F8, symSize: 0x64 }
  - { offsetInCU: 0x125CC, offset: 0x1D89C, size: 0x8, addend: 0x0, symName: __ZNSt3__117__libcpp_allocateB7v160006Emm, symObjAddr: 0x3AC4, symBinAddr: 0x10000B56C, symSize: 0x60 }
  - { offsetInCU: 0x12627, offset: 0x1D8F7, size: 0x8, addend: 0x0, symName: __ZNSt3__121__libcpp_operator_newB7v160006IJmSt11align_val_tEEEPvDpT_, symObjAddr: 0x3B24, symBinAddr: 0x10000B5CC, symSize: 0x2C }
  - { offsetInCU: 0x12677, offset: 0x1D947, size: 0x8, addend: 0x0, symName: __ZNSt3__121__libcpp_operator_newB7v160006IJmEEEPvDpT_, symObjAddr: 0x3B50, symBinAddr: 0x10000B5F8, symSize: 0x24 }
  - { offsetInCU: 0x126B2, offset: 0x1D982, size: 0x8, addend: 0x0, symName: __ZNSt3__130__uninitialized_allocator_copyB7v160006INS_9allocatorI6VertexEEPS2_S4_S4_EET2_RT_T0_T1_S5_, symObjAddr: 0x3BE8, symBinAddr: 0x10000B690, symSize: 0xF4 }
  - { offsetInCU: 0x12750, offset: 0x1DA20, size: 0x8, addend: 0x0, symName: __ZNSt3__122__make_exception_guardB7v160006INS_29_AllocatorDestroyRangeReverseINS_9allocatorI6VertexEEPS3_EEEENS_28__exception_guard_exceptionsIT_EES8_, symObjAddr: 0x3D54, symBinAddr: 0x10000B7FC, symSize: 0x4C }
  - { offsetInCU: 0x12786, offset: 0x1DA56, size: 0x8, addend: 0x0, symName: __ZNSt3__119__allocator_destroyB7v160006INS_9allocatorI6VertexEENS_16reverse_iteratorIPS2_EES6_EEvRT_T0_T1_, symObjAddr: 0x3FE4, symBinAddr: 0x10000BA8C, symSize: 0x70 }
  - { offsetInCU: 0x127EA, offset: 0x1DABA, size: 0x8, addend: 0x0, symName: __ZNSt3__1neB7v160006IP6VertexS2_EEbRKNS_16reverse_iteratorIT_EERKNS3_IT0_EE, symObjAddr: 0x4088, symBinAddr: 0x10000BB30, symSize: 0x48 }
  - { offsetInCU: 0x12836, offset: 0x1DB06, size: 0x8, addend: 0x0, symName: __ZNSt3__112__to_addressB7v160006INS_16reverse_iteratorIP6VertexEEvEENS_5decayIDTclsr19__to_address_helperIT_EE6__callclsr3stdE7declvalIRKS6_EEEEE4typeES8_, symObjAddr: 0x40D0, symBinAddr: 0x10000BB78, symSize: 0x24 }
  - { offsetInCU: 0x12897, offset: 0x1DB67, size: 0x8, addend: 0x0, symName: __ZNSt3__122__make_exception_guardB7v160006INS_6vectorI8TriangleNS_9allocatorIS2_EEE16__destroy_vectorEEENS_28__exception_guard_exceptionsIT_EES8_, symObjAddr: 0x43CC, symBinAddr: 0x10000BE74, symSize: 0x40 }
  - { offsetInCU: 0x128CC, offset: 0x1DB9C, size: 0x8, addend: 0x0, symName: __ZNSt3__119__allocate_at_leastB7v160006INS_9allocatorI8TriangleEEEENS_19__allocation_resultINS_16allocator_traitsIT_E7pointerEEERS6_m, symObjAddr: 0x46FC, symBinAddr: 0x10000C1A4, symSize: 0x40 }
  - { offsetInCU: 0x1290F, offset: 0x1DBDF, size: 0x8, addend: 0x0, symName: __ZNSt3__130__uninitialized_allocator_copyB7v160006INS_9allocatorI8TriangleEEPS2_S4_S4_EET2_RT_T0_T1_S5_, symObjAddr: 0x4938, symBinAddr: 0x10000C3E0, symSize: 0xF4 }
  - { offsetInCU: 0x129AD, offset: 0x1DC7D, size: 0x8, addend: 0x0, symName: __ZNSt3__122__make_exception_guardB7v160006INS_29_AllocatorDestroyRangeReverseINS_9allocatorI8TriangleEEPS3_EEEENS_28__exception_guard_exceptionsIT_EES8_, symObjAddr: 0x4AA4, symBinAddr: 0x10000C54C, symSize: 0x4C }
  - { offsetInCU: 0x129E3, offset: 0x1DCB3, size: 0x8, addend: 0x0, symName: __ZNSt3__119__allocator_destroyB7v160006INS_9allocatorI8TriangleEENS_16reverse_iteratorIPS2_EES6_EEvRT_T0_T1_, symObjAddr: 0x4D34, symBinAddr: 0x10000C7DC, symSize: 0x70 }
  - { offsetInCU: 0x12A47, offset: 0x1DD17, size: 0x8, addend: 0x0, symName: __ZNSt3__1neB7v160006IP8TriangleS2_EEbRKNS_16reverse_iteratorIT_EERKNS3_IT0_EE, symObjAddr: 0x4DD8, symBinAddr: 0x10000C880, symSize: 0x48 }
  - { offsetInCU: 0x12A93, offset: 0x1DD63, size: 0x8, addend: 0x0, symName: __ZNSt3__112__to_addressB7v160006INS_16reverse_iteratorIP8TriangleEEvEENS_5decayIDTclsr19__to_address_helperIT_EE6__callclsr3stdE7declvalIRKS6_EEEEE4typeES8_, symObjAddr: 0x4E20, symBinAddr: 0x10000C8C8, symSize: 0x24 }
  - { offsetInCU: 0x12AF4, offset: 0x1DDC4, size: 0x8, addend: 0x0, symName: __ZNSt3__123__str_find_first_not_ofB7v160006IcmNS_11char_traitsIcEELm18446744073709551615EEET0_PKT_S3_S6_S3_S3_, symObjAddr: 0x4F98, symBinAddr: 0x10000CA40, symSize: 0xDC }
  - { offsetInCU: 0x12BC8, offset: 0x1DE98, size: 0x8, addend: 0x0, symName: __ZNSt3__123__constexpr_char_memchrB7v160006EPKcim, symObjAddr: 0x5140, symBinAddr: 0x10000CBB4, symSize: 0x34 }
  - { offsetInCU: 0x12C10, offset: 0x1DEE0, size: 0x8, addend: 0x0, symName: __ZNSt3__112__to_addressB7v160006IKcEEPT_S3_, symObjAddr: 0x5174, symBinAddr: 0x10000CBE8, symSize: 0x14 }
  - { offsetInCU: 0x12C78, offset: 0x1DF48, size: 0x8, addend: 0x0, symName: __ZNSt3__122__str_find_last_not_ofB7v160006IcmNS_11char_traitsIcEELm18446744073709551615EEET0_PKT_S3_S6_S3_S3_, symObjAddr: 0x5264, symBinAddr: 0x10000CCB4, symSize: 0xDC }
  - { offsetInCU: 0x12D2E, offset: 0x1DFFE, size: 0x8, addend: 0x0, symName: __ZNSt3__119__debug_db_insert_cB7v160006INS_6vectorIN3glm5tvec3IfLNS2_9precisionE0EEENS_9allocatorIS5_EEEEEEvPT_, symObjAddr: 0x5E60, symBinAddr: 0x10000CFEC, symSize: 0x10 }
  - { offsetInCU: 0x12D5F, offset: 0x1E02F, size: 0x8, addend: 0x0, symName: __ZNSt3__118__debug_db_erase_cB7v160006INS_6vectorIN3glm5tvec3IfLNS2_9precisionE0EEENS_9allocatorIS5_EEEEEEvPT_, symObjAddr: 0x6140, symBinAddr: 0x10000D2CC, symSize: 0x10 }
  - { offsetInCU: 0x12D90, offset: 0x1E060, size: 0x8, addend: 0x0, symName: __ZNSt3__112__to_addressB7v160006IN3glm5tvec3IfLNS1_9precisionE0EEEEEPT_S6_, symObjAddr: 0x625C, symBinAddr: 0x10000D3E8, symSize: 0x14 }
  - { offsetInCU: 0x12DC5, offset: 0x1E095, size: 0x8, addend: 0x0, symName: __ZNSt3__125__debug_db_invalidate_allB7v160006INS_12basic_stringIcNS_11char_traitsIcEENS_9allocatorIcEEEEEEvPT_, symObjAddr: 0x6B24, symBinAddr: 0x10000DCB0, symSize: 0x10 }
  - { offsetInCU: 0x12FE3, offset: 0x1E2B3, size: 0x8, addend: 0x0, symName: __ZNSt3__13maxB7v160006ImEERKT_S3_S3_, symObjAddr: 0x7018, symBinAddr: 0x10000E1A4, symSize: 0x2C }
  - { offsetInCU: 0x13026, offset: 0x1E2F6, size: 0x8, addend: 0x0, symName: __ZNSt3__13maxB7v160006ImNS_6__lessImmEEEERKT_S5_S5_T0_, symObjAddr: 0x7044, symBinAddr: 0x10000E1D0, symSize: 0x54 }
  - { offsetInCU: 0x13080, offset: 0x1E350, size: 0x8, addend: 0x0, symName: __ZNSt3__142__uninitialized_allocator_move_if_noexceptB7v160006INS_9allocatorI6VertexEENS_16reverse_iteratorIPS2_EES6_S2_vEET1_RT_T0_SA_S7_, symObjAddr: 0x72D0, symBinAddr: 0x10000E45C, symSize: 0x78 }
  - { offsetInCU: 0x130FF, offset: 0x1E3CF, size: 0x8, addend: 0x0, symName: __ZNSt3__14swapB7v160006IP6VertexEENS_9enable_ifIXaasr21is_move_constructibleIT_EE5valuesr18is_move_assignableIS4_EE5valueEvE4typeERS4_S7_, symObjAddr: 0x7348, symBinAddr: 0x10000E4D4, symSize: 0x3C }
  - { offsetInCU: 0x13150, offset: 0x1E420, size: 0x8, addend: 0x0, symName: __ZNSt3__125__debug_db_invalidate_allB7v160006INS_6vectorI6VertexNS_9allocatorIS2_EEEEEEvPT_, symObjAddr: 0x7384, symBinAddr: 0x10000E510, symSize: 0x10 }
  - { offsetInCU: 0x13181, offset: 0x1E451, size: 0x8, addend: 0x0, symName: __ZNSt3__14moveB7v160006INS_16reverse_iteratorIP6VertexEES4_EET0_T_S6_S5_, symObjAddr: 0x7394, symBinAddr: 0x10000E520, symSize: 0x78 }
  - { offsetInCU: 0x131DB, offset: 0x1E4AB, size: 0x8, addend: 0x0, symName: __ZNSt3__16__moveB7v160006INS_17_ClassicAlgPolicyENS_16reverse_iteratorIP6VertexEES5_S5_EENS_4pairIT0_T2_EES7_T1_S8_, symObjAddr: 0x740C, symBinAddr: 0x10000E598, symSize: 0x64 }
  - { offsetInCU: 0x13247, offset: 0x1E517, size: 0x8, addend: 0x0, symName: __ZNSt3__123__dispatch_copy_or_moveB7v160006INS_17_ClassicAlgPolicyENS_11__move_loopIS1_EENS_14__move_trivialENS_16reverse_iteratorIP6VertexEES8_S8_EENS_4pairIT2_T4_EESA_T3_SB_, symObjAddr: 0x7470, symBinAddr: 0x10000E5FC, symSize: 0x64 }
  - { offsetInCU: 0x132C5, offset: 0x1E595, size: 0x8, addend: 0x0, symName: __ZNSt3__121__unwrap_and_dispatchB7v160006INS_10__overloadINS_11__move_loopINS_17_ClassicAlgPolicyEEENS_14__move_trivialEEENS_16reverse_iteratorIP6VertexEESA_SA_Li0EEENS_4pairIT0_T2_EESC_T1_SD_, symObjAddr: 0x74D4, symBinAddr: 0x10000E660, symSize: 0x12C }
  - { offsetInCU: 0x13356, offset: 0x1E626, size: 0x8, addend: 0x0, symName: __ZNSt3__114__unwrap_rangeB7v160006INS_16reverse_iteratorIP6VertexEES4_EENS_4pairIT0_S6_EET_S8_, symObjAddr: 0x7600, symBinAddr: 0x10000E78C, symSize: 0x84 }
  - { offsetInCU: 0x13511, offset: 0x1E7E1, size: 0x8, addend: 0x0, symName: __ZNSt3__113__unwrap_iterB7v160006INS_16reverse_iteratorIP6VertexEENS_18__unwrap_iter_implIS4_Lb0EEELi0EEEDTclsrT0_8__unwrapclsr3stdE7declvalIT_EEEES8_, symObjAddr: 0x772C, symBinAddr: 0x10000E8B8, symSize: 0x44 }
  - { offsetInCU: 0x13556, offset: 0x1E826, size: 0x8, addend: 0x0, symName: __ZNSt3__19make_pairB7v160006INS_16reverse_iteratorIP6VertexEES4_EENS_4pairINS_18__unwrap_ref_decayIT_E4typeENS6_IT0_E4typeEEEOS7_OSA_, symObjAddr: 0x7770, symBinAddr: 0x10000E8FC, symSize: 0x38 }
  - { offsetInCU: 0x135A5, offset: 0x1E875, size: 0x8, addend: 0x0, symName: __ZNSt3__114__rewrap_rangeB7v160006INS_16reverse_iteratorIP6VertexEES4_EET_S5_T0_, symObjAddr: 0x77A8, symBinAddr: 0x10000E934, symSize: 0x5C }
  - { offsetInCU: 0x135F1, offset: 0x1E8C1, size: 0x8, addend: 0x0, symName: __ZNSt3__113__rewrap_iterB7v160006INS_16reverse_iteratorIP6VertexEES4_NS_18__unwrap_iter_implIS4_Lb0EEEEET_S7_T0_, symObjAddr: 0x7804, symBinAddr: 0x10000E990, symSize: 0x74 }
  - { offsetInCU: 0x1372D, offset: 0x1E9FD, size: 0x8, addend: 0x0, symName: __ZNSt3__119__allocate_at_leastB7v160006INS_9allocatorIN3glm5tvec3IfLNS2_9precisionE0EEEEEEENS_19__allocation_resultINS_16allocator_traitsIT_E7pointerEEERS9_m, symObjAddr: 0x8354, symBinAddr: 0x10000F4BC, symSize: 0x40 }
  - { offsetInCU: 0x13770, offset: 0x1EA40, size: 0x8, addend: 0x0, symName: __ZNSt3__142__uninitialized_allocator_move_if_noexceptB7v160006INS_9allocatorIN3glm5tvec3IfLNS2_9precisionE0EEEEENS_16reverse_iteratorIPS5_EES9_S9_EET2_RT_T0_T1_SA_, symObjAddr: 0x850C, symBinAddr: 0x10000F674, symSize: 0x12C }
  - { offsetInCU: 0x13810, offset: 0x1EAE0, size: 0x8, addend: 0x0, symName: __ZNSt3__14swapB7v160006IPN3glm5tvec3IfLNS1_9precisionE0EEEEENS_9enable_ifIXaasr21is_move_constructibleIT_EE5valuesr18is_move_assignableIS7_EE5valueEvE4typeERS7_SA_, symObjAddr: 0x8684, symBinAddr: 0x10000F7EC, symSize: 0x3C }
  - { offsetInCU: 0x13861, offset: 0x1EB31, size: 0x8, addend: 0x0, symName: __ZNSt3__125__debug_db_invalidate_allB7v160006INS_6vectorIN3glm5tvec3IfLNS2_9precisionE0EEENS_9allocatorIS5_EEEEEEvPT_, symObjAddr: 0x8788, symBinAddr: 0x10000F8F0, symSize: 0x10 }
  - { offsetInCU: 0x13892, offset: 0x1EB62, size: 0x8, addend: 0x0, symName: __ZNSt3__122__make_exception_guardB7v160006INS_29_AllocatorDestroyRangeReverseINS_9allocatorIN3glm5tvec3IfLNS3_9precisionE0EEEEENS_16reverse_iteratorIPS6_EEEEEENS_28__exception_guard_exceptionsIT_EESD_, symObjAddr: 0x8798, symBinAddr: 0x10000F900, symSize: 0x4C }
  - { offsetInCU: 0x138C8, offset: 0x1EB98, size: 0x8, addend: 0x0, symName: __ZNSt3__1neB7v160006IPN3glm5tvec3IfLNS1_9precisionE0EEES5_EEbRKNS_16reverse_iteratorIT_EERKNS6_IT0_EE, symObjAddr: 0x8828, symBinAddr: 0x10000F990, symSize: 0x48 }
  - { offsetInCU: 0x13914, offset: 0x1EBE4, size: 0x8, addend: 0x0, symName: __ZNSt3__112__to_addressB7v160006INS_16reverse_iteratorIPN3glm5tvec3IfLNS2_9precisionE0EEEEEvEENS_5decayIDTclsr19__to_address_helperIT_EE6__callclsr3stdE7declvalIRKS9_EEEEE4typeESB_, symObjAddr: 0x8870, symBinAddr: 0x10000F9D8, symSize: 0x24 }
  - { offsetInCU: 0x13975, offset: 0x1EC45, size: 0x8, addend: 0x0, symName: __ZNSt3__119__allocator_destroyB7v160006INS_9allocatorIN3glm5tvec3IfLNS2_9precisionE0EEEEENS_16reverse_iteratorINS7_IPS5_EEEESA_EEvRT_T0_T1_, symObjAddr: 0x8B20, symBinAddr: 0x10000FC88, symSize: 0x70 }
  - { offsetInCU: 0x139DB, offset: 0x1ECAB, size: 0x8, addend: 0x0, symName: __ZNSt3__1neB7v160006INS_16reverse_iteratorIPN3glm5tvec3IfLNS2_9precisionE0EEEEES7_EEbRKNS1_IT_EERKNS1_IT0_EE, symObjAddr: 0x8BCC, symBinAddr: 0x10000FD34, symSize: 0x60 }
  - { offsetInCU: 0x13A27, offset: 0x1ECF7, size: 0x8, addend: 0x0, symName: __ZNSt3__112__to_addressB7v160006INS_16reverse_iteratorINS1_IPN3glm5tvec3IfLNS2_9precisionE0EEEEEEEvEENS_5decayIDTclsr19__to_address_helperIT_EE6__callclsr3stdE7declvalIRKSA_EEEEE4typeESC_, symObjAddr: 0x8C2C, symBinAddr: 0x10000FD94, symSize: 0x24 }
  - { offsetInCU: 0x13A88, offset: 0x1ED58, size: 0x8, addend: 0x0, symName: __ZNSt3__142__uninitialized_allocator_move_if_noexceptB7v160006INS_9allocatorI8TriangleEENS_16reverse_iteratorIPS2_EES6_S2_vEET1_RT_T0_SA_S7_, symObjAddr: 0x95FC, symBinAddr: 0x100010764, symSize: 0x78 }
  - { offsetInCU: 0x13B07, offset: 0x1EDD7, size: 0x8, addend: 0x0, symName: __ZNSt3__14swapB7v160006IP8TriangleEENS_9enable_ifIXaasr21is_move_constructibleIT_EE5valuesr18is_move_assignableIS4_EE5valueEvE4typeERS4_S7_, symObjAddr: 0x9674, symBinAddr: 0x1000107DC, symSize: 0x3C }
  - { offsetInCU: 0x13B58, offset: 0x1EE28, size: 0x8, addend: 0x0, symName: __ZNSt3__125__debug_db_invalidate_allB7v160006INS_6vectorI8TriangleNS_9allocatorIS2_EEEEEEvPT_, symObjAddr: 0x96B0, symBinAddr: 0x100010818, symSize: 0x10 }
  - { offsetInCU: 0x13B89, offset: 0x1EE59, size: 0x8, addend: 0x0, symName: __ZNSt3__14moveB7v160006INS_16reverse_iteratorIP8TriangleEES4_EET0_T_S6_S5_, symObjAddr: 0x96C0, symBinAddr: 0x100010828, symSize: 0x78 }
  - { offsetInCU: 0x13BE3, offset: 0x1EEB3, size: 0x8, addend: 0x0, symName: __ZNSt3__16__moveB7v160006INS_17_ClassicAlgPolicyENS_16reverse_iteratorIP8TriangleEES5_S5_EENS_4pairIT0_T2_EES7_T1_S8_, symObjAddr: 0x9738, symBinAddr: 0x1000108A0, symSize: 0x64 }
  - { offsetInCU: 0x13C4F, offset: 0x1EF1F, size: 0x8, addend: 0x0, symName: __ZNSt3__123__dispatch_copy_or_moveB7v160006INS_17_ClassicAlgPolicyENS_11__move_loopIS1_EENS_14__move_trivialENS_16reverse_iteratorIP8TriangleEES8_S8_EENS_4pairIT2_T4_EESA_T3_SB_, symObjAddr: 0x979C, symBinAddr: 0x100010904, symSize: 0x64 }
  - { offsetInCU: 0x13CCD, offset: 0x1EF9D, size: 0x8, addend: 0x0, symName: __ZNSt3__121__unwrap_and_dispatchB7v160006INS_10__overloadINS_11__move_loopINS_17_ClassicAlgPolicyEEENS_14__move_trivialEEENS_16reverse_iteratorIP8TriangleEESA_SA_Li0EEENS_4pairIT0_T2_EESC_T1_SD_, symObjAddr: 0x9800, symBinAddr: 0x100010968, symSize: 0x12C }
  - { offsetInCU: 0x13D5E, offset: 0x1F02E, size: 0x8, addend: 0x0, symName: __ZNSt3__114__unwrap_rangeB7v160006INS_16reverse_iteratorIP8TriangleEES4_EENS_4pairIT0_S6_EET_S8_, symObjAddr: 0x992C, symBinAddr: 0x100010A94, symSize: 0x84 }
  - { offsetInCU: 0x13E7F, offset: 0x1F14F, size: 0x8, addend: 0x0, symName: __ZNSt3__113__unwrap_iterB7v160006INS_16reverse_iteratorIP8TriangleEENS_18__unwrap_iter_implIS4_Lb0EEELi0EEEDTclsrT0_8__unwrapclsr3stdE7declvalIT_EEEES8_, symObjAddr: 0x9A58, symBinAddr: 0x100010BC0, symSize: 0x44 }
  - { offsetInCU: 0x13EC4, offset: 0x1F194, size: 0x8, addend: 0x0, symName: __ZNSt3__19make_pairB7v160006INS_16reverse_iteratorIP8TriangleEES4_EENS_4pairINS_18__unwrap_ref_decayIT_E4typeENS6_IT0_E4typeEEEOS7_OSA_, symObjAddr: 0x9A9C, symBinAddr: 0x100010C04, symSize: 0x38 }
  - { offsetInCU: 0x13F13, offset: 0x1F1E3, size: 0x8, addend: 0x0, symName: __ZNSt3__114__rewrap_rangeB7v160006INS_16reverse_iteratorIP8TriangleEES4_EET_S5_T0_, symObjAddr: 0x9AD4, symBinAddr: 0x100010C3C, symSize: 0x5C }
  - { offsetInCU: 0x13F5F, offset: 0x1F22F, size: 0x8, addend: 0x0, symName: __ZNSt3__113__rewrap_iterB7v160006INS_16reverse_iteratorIP8TriangleEES4_NS_18__unwrap_iter_implIS4_Lb0EEEEET_S7_T0_, symObjAddr: 0x9B30, symBinAddr: 0x100010C98, symSize: 0x74 }
  - { offsetInCU: 0x14593, offset: 0x1F863, size: 0x8, addend: 0x0, symName: __ZSt28__throw_bad_array_new_lengthB7v160006v, symObjAddr: 0x3A90, symBinAddr: 0x10000B538, symSize: 0x34 }
  - { offsetInCU: 0x15379, offset: 0x20649, size: 0x8, addend: 0x0, symName: __ZNSt3__16vectorI6VertexNS_9allocatorIS1_EEE26__swap_out_circular_bufferERNS_14__split_bufferIS1_RS3_EE, symObjAddr: 0x6ED4, symBinAddr: 0x10000E060, symSize: 0x118 }
  - { offsetInCU: 0x153BB, offset: 0x2068B, size: 0x8, addend: 0x0, symName: __ZNSt3__16vectorIN3glm5tvec3IfLNS1_9precisionE0EEENS_9allocatorIS4_EEE26__swap_out_circular_bufferERNS_14__split_bufferIS4_RS6_EE, symObjAddr: 0x7FDC, symBinAddr: 0x10000F144, symSize: 0x118 }
  - { offsetInCU: 0x1544D, offset: 0x2071D, size: 0x8, addend: 0x0, symName: __ZNSt3__16vectorI8TriangleNS_9allocatorIS1_EEE26__swap_out_circular_bufferERNS_14__split_bufferIS1_RS3_EE, symObjAddr: 0x9280, symBinAddr: 0x1000103E8, symSize: 0x118 }
  - { offsetInCU: 0x1727C, offset: 0x2254C, size: 0x8, addend: 0x0, symName: __ZN8OBJModelC2ENSt3__112basic_stringIcNS0_11char_traitsIcEENS0_9allocatorIcEEEE, symObjAddr: 0x0, symBinAddr: 0x100007D3C, symSize: 0x8C }
  - { offsetInCU: 0x172B5, offset: 0x22585, size: 0x8, addend: 0x0, symName: __ZNSt3__16vectorI6VertexNS_9allocatorIS1_EEEC1B7v160006Ev, symObjAddr: 0x8C, symBinAddr: 0x100007DC8, symSize: 0x2C }
  - { offsetInCU: 0x172DE, offset: 0x225AE, size: 0x8, addend: 0x0, symName: __ZNSt3__16vectorI8TriangleNS_9allocatorIS1_EEEC1B7v160006Ev, symObjAddr: 0xB8, symBinAddr: 0x100007DF4, symSize: 0x2C }
  - { offsetInCU: 0x17307, offset: 0x225D7, size: 0x8, addend: 0x0, symName: __ZN8OBJModel9LoadModelERKNSt3__112basic_stringIcNS0_11char_traitsIcEENS0_9allocatorIcEEEERNS0_6vectorI6VertexNS4_ISA_EEEERNS9_I8TriangleNS4_ISE_EEEE, symObjAddr: 0xE4, symBinAddr: 0x100007E20, symSize: 0x9C0 }
  - { offsetInCU: 0x174C9, offset: 0x22799, size: 0x8, addend: 0x0, symName: __ZNSt3__16vectorI8TriangleNS_9allocatorIS1_EEED1B7v160006Ev, symObjAddr: 0xAA4, symBinAddr: 0x1000087E0, symSize: 0x2C }
  - { offsetInCU: 0x174F2, offset: 0x227C2, size: 0x8, addend: 0x0, symName: __ZNSt3__16vectorI6VertexNS_9allocatorIS1_EEED1B7v160006Ev, symObjAddr: 0xAD0, symBinAddr: 0x10000880C, symSize: 0x2C }
  - { offsetInCU: 0x1751B, offset: 0x227EB, size: 0x8, addend: 0x0, symName: __ZN8OBJModelC1ENSt3__112basic_stringIcNS0_11char_traitsIcEENS0_9allocatorIcEEEE, symObjAddr: 0xAFC, symBinAddr: 0x100008838, symSize: 0x34 }
  - { offsetInCU: 0x17554, offset: 0x22824, size: 0x8, addend: 0x0, symName: __ZN8OBJModelD2Ev, symObjAddr: 0xB30, symBinAddr: 0x10000886C, symSize: 0x38 }
  - { offsetInCU: 0x1757E, offset: 0x2284E, size: 0x8, addend: 0x0, symName: __ZN8OBJModelD1Ev, symObjAddr: 0xB68, symBinAddr: 0x1000088A4, symSize: 0x2C }
  - { offsetInCU: 0x175A8, offset: 0x22878, size: 0x8, addend: 0x0, symName: __ZN8OBJModel11getVerticesEv, symObjAddr: 0xB94, symBinAddr: 0x1000088D0, symSize: 0x38 }
  - { offsetInCU: 0x175CE, offset: 0x2289E, size: 0x8, addend: 0x0, symName: __ZNSt3__16vectorI6VertexNS_9allocatorIS1_EEEC1ERKS4_, symObjAddr: 0xBCC, symBinAddr: 0x100008908, symSize: 0x34 }
  - { offsetInCU: 0x17608, offset: 0x228D8, size: 0x8, addend: 0x0, symName: __ZN8OBJModel12getTrianglesEv, symObjAddr: 0xC00, symBinAddr: 0x10000893C, symSize: 0x3C }
  - { offsetInCU: 0x1762E, offset: 0x228FE, size: 0x8, addend: 0x0, symName: __ZNSt3__16vectorI8TriangleNS_9allocatorIS1_EEEC1ERKS4_, symObjAddr: 0xC3C, symBinAddr: 0x100008978, symSize: 0x34 }
  - { offsetInCU: 0x17667, offset: 0x22937, size: 0x8, addend: 0x0, symName: __Z4trimRKNSt3__112basic_stringIcNS_11char_traitsIcEENS_9allocatorIcEEEE, symObjAddr: 0xC70, symBinAddr: 0x1000089AC, symSize: 0xA0 }
  - { offsetInCU: 0x176B0, offset: 0x22980, size: 0x8, addend: 0x0, symName: __ZNKSt3__112basic_stringIcNS_11char_traitsIcEENS_9allocatorIcEEE17find_first_not_ofB7v160006EPKcm, symObjAddr: 0xD10, symBinAddr: 0x100008A4C, symSize: 0x74 }
  - { offsetInCU: 0x176F5, offset: 0x229C5, size: 0x8, addend: 0x0, symName: __ZNKSt3__112basic_stringIcNS_11char_traitsIcEENS_9allocatorIcEEE16find_last_not_ofB7v160006EPKcm, symObjAddr: 0xD84, symBinAddr: 0x100008AC0, symSize: 0x74 }
  - { offsetInCU: 0x1773A, offset: 0x22A0A, size: 0x8, addend: 0x0, symName: __ZNKSt3__112basic_stringIcNS_11char_traitsIcEENS_9allocatorIcEEE6substrB7v160006Emm, symObjAddr: 0xDF8, symBinAddr: 0x100008B34, symSize: 0x68 }
  - { offsetInCU: 0x17899, offset: 0x22B69, size: 0x8, addend: 0x0, symName: __ZNSt3__114basic_ifstreamIcNS_11char_traitsIcEEEC1ERKNS_12basic_stringIcS2_NS_9allocatorIcEEEEj, symObjAddr: 0xEF4, symBinAddr: 0x100008BE8, symSize: 0x16C }
  - { offsetInCU: 0x178E2, offset: 0x22BB2, size: 0x8, addend: 0x0, symName: __ZNKSt3__114basic_ifstreamIcNS_11char_traitsIcEEE7is_openEv, symObjAddr: 0x1060, symBinAddr: 0x100008D54, symSize: 0x2C }
  - { offsetInCU: 0x17909, offset: 0x22BD9, size: 0x8, addend: 0x0, symName: __ZNSt3__113basic_ostreamIcNS_11char_traitsIcEEElsB7v160006EPFRS3_S4_E, symObjAddr: 0x108C, symBinAddr: 0x100008D80, symSize: 0x2C }
  - { offsetInCU: 0x1793C, offset: 0x22C0C, size: 0x8, addend: 0x0, symName: __ZNSt3__16vectorIN3glm5tvec3IfLNS1_9precisionE0EEENS_9allocatorIS4_EEEC1B7v160006Ev, symObjAddr: 0x1110, symBinAddr: 0x100008E04, symSize: 0x2C }
  - { offsetInCU: 0x17965, offset: 0x22C35, size: 0x8, addend: 0x0, symName: __ZNSt3__112basic_stringIcNS_11char_traitsIcEENS_9allocatorIcEEEC1B7v160006Ev, symObjAddr: 0x113C, symBinAddr: 0x100008E30, symSize: 0x2C }
  - { offsetInCU: 0x1798E, offset: 0x22C5E, size: 0x8, addend: 0x0, symName: __ZNKSt3__19basic_iosIcNS_11char_traitsIcEEEcvbB7v160006Ev, symObjAddr: 0x11C4, symBinAddr: 0x100008EB8, symSize: 0x2C }
  - { offsetInCU: 0x179B3, offset: 0x22C83, size: 0x8, addend: 0x0, symName: __ZNSt3__112basic_stringIcNS_11char_traitsIcEENS_9allocatorIcEEEaSB7v160006EOS5_, symObjAddr: 0x11F0, symBinAddr: 0x100008EE4, symSize: 0x34 }
  - { offsetInCU: 0x179E7, offset: 0x22CB7, size: 0x8, addend: 0x0, symName: __ZNKSt3__112basic_stringIcNS_11char_traitsIcEENS_9allocatorIcEEE5emptyB7v160006Ev, symObjAddr: 0x1224, symBinAddr: 0x100008F18, symSize: 0x30 }
  - { offsetInCU: 0x17A0C, offset: 0x22CDC, size: 0x8, addend: 0x0, symName: __ZNSt3__112basic_stringIcNS_11char_traitsIcEENS_9allocatorIcEEEixB7v160006Em, symObjAddr: 0x1254, symBinAddr: 0x100008F48, symSize: 0x30 }
  - { offsetInCU: 0x17A9F, offset: 0x22D6F, size: 0x8, addend: 0x0, symName: __ZNSt3__118basic_stringstreamIcNS_11char_traitsIcEENS_9allocatorIcEEEC1B7v160006ERKNS_12basic_stringIcS2_S4_EEj, symObjAddr: 0x1284, symBinAddr: 0x100008F78, symSize: 0x110 }
  - { offsetInCU: 0x17AE6, offset: 0x22DB6, size: 0x8, addend: 0x0, symName: __ZNSt3__16vectorI6VertexNS_9allocatorIS1_EEE9push_backB7v160006ERKS1_, symObjAddr: 0x174C, symBinAddr: 0x100009440, symSize: 0x6C }
  - { offsetInCU: 0x17B1C, offset: 0x22DEC, size: 0x8, addend: 0x0, symName: __ZNSt3__16vectorIN3glm5tvec3IfLNS1_9precisionE0EEENS_9allocatorIS4_EEE9push_backB7v160006ERKS4_, symObjAddr: 0x17E4, symBinAddr: 0x1000094AC, symSize: 0x6C }
  - { offsetInCU: 0x17B52, offset: 0x22E22, size: 0x8, addend: 0x0, symName: __ZNKSt3__16vectorI6VertexNS_9allocatorIS1_EEE4sizeB7v160006Ev, symObjAddr: 0x1A84, symBinAddr: 0x10000974C, symSize: 0x28 }
  - { offsetInCU: 0x17B77, offset: 0x22E47, size: 0x8, addend: 0x0, symName: __ZNKSt3__16vectorIN3glm5tvec3IfLNS1_9precisionE0EEENS_9allocatorIS4_EEE4sizeB7v160006Ev, symObjAddr: 0x1AB8, symBinAddr: 0x100009774, symSize: 0x28 }
  - { offsetInCU: 0x17B9C, offset: 0x22E6C, size: 0x8, addend: 0x0, symName: __ZNSt3__16vectorIN3glm5tvec3IfLNS1_9precisionE0EEENS_9allocatorIS4_EEEixB7v160006Em, symObjAddr: 0x1AE0, symBinAddr: 0x10000979C, symSize: 0x2C }
  - { offsetInCU: 0x17BD2, offset: 0x22EA2, size: 0x8, addend: 0x0, symName: __ZNSt3__16vectorI6VertexNS_9allocatorIS1_EEEixB7v160006Em, symObjAddr: 0x1B0C, symBinAddr: 0x1000097C8, symSize: 0x2C }
  - { offsetInCU: 0x17C0D, offset: 0x22EDD, size: 0x8, addend: 0x0, symName: __ZNSt3__118basic_stringstreamIcNS_11char_traitsIcEENS_9allocatorIcEEED1Ev, symObjAddr: 0x1B38, symBinAddr: 0x1000097F4, symSize: 0x40 }
  - { offsetInCU: 0x17C39, offset: 0x22F09, size: 0x8, addend: 0x0, symName: __ZNSt3__16vectorI8TriangleNS_9allocatorIS1_EEE9push_backB7v160006ERKS1_, symObjAddr: 0x1B78, symBinAddr: 0x100009834, symSize: 0x6C }
  - { offsetInCU: 0x17C6F, offset: 0x22F3F, size: 0x8, addend: 0x0, symName: __ZNSt3__114basic_ifstreamIcNS_11char_traitsIcEEE5closeEv, symObjAddr: 0x1BE4, symBinAddr: 0x1000098A0, symSize: 0x58 }
  - { offsetInCU: 0x17C96, offset: 0x22F66, size: 0x8, addend: 0x0, symName: __ZNSt3__16vectorIN3glm5tvec3IfLNS1_9precisionE0EEENS_9allocatorIS4_EEED1B7v160006Ev, symObjAddr: 0x1C3C, symBinAddr: 0x1000098F8, symSize: 0x2C }
  - { offsetInCU: 0x17CC4, offset: 0x22F94, size: 0x8, addend: 0x0, symName: __ZNSt3__114basic_ifstreamIcNS_11char_traitsIcEEED1Ev, symObjAddr: 0x1C68, symBinAddr: 0x100009924, symSize: 0x40 }
  - { offsetInCU: 0x17CF0, offset: 0x22FC0, size: 0x8, addend: 0x0, symName: __ZNSt3__118basic_stringstreamIcNS_11char_traitsIcEENS_9allocatorIcEEED2Ev, symObjAddr: 0x1CA8, symBinAddr: 0x100009964, symSize: 0x6C }
  - { offsetInCU: 0x17D28, offset: 0x22FF8, size: 0x8, addend: 0x0, symName: __ZThn16_NSt3__118basic_stringstreamIcNS_11char_traitsIcEENS_9allocatorIcEEED1Ev, symObjAddr: 0x1D14, symBinAddr: 0x1000099D0, symSize: 0x1C }
  - { offsetInCU: 0x17D3F, offset: 0x2300F, size: 0x8, addend: 0x0, symName: __ZTv0_n24_NSt3__118basic_stringstreamIcNS_11char_traitsIcEENS_9allocatorIcEEED1Ev, symObjAddr: 0x1D30, symBinAddr: 0x1000099EC, symSize: 0x28 }
  - { offsetInCU: 0x17D5B, offset: 0x2302B, size: 0x8, addend: 0x0, symName: __ZNSt3__115basic_stringbufIcNS_11char_traitsIcEENS_9allocatorIcEEED1Ev, symObjAddr: 0x1D58, symBinAddr: 0x100009A14, symSize: 0x2C }
  - { offsetInCU: 0x17D87, offset: 0x23057, size: 0x8, addend: 0x0, symName: __ZNSt3__115basic_stringbufIcNS_11char_traitsIcEENS_9allocatorIcEEED2Ev, symObjAddr: 0x1D84, symBinAddr: 0x100009A40, symSize: 0x48 }
  - { offsetInCU: 0x17DB3, offset: 0x23083, size: 0x8, addend: 0x0, symName: __ZNSt3__114basic_ifstreamIcNS_11char_traitsIcEEED2Ev, symObjAddr: 0x1DCC, symBinAddr: 0x100009A88, symSize: 0x64 }
  - { offsetInCU: 0x17DEB, offset: 0x230BB, size: 0x8, addend: 0x0, symName: __ZTv0_n24_NSt3__114basic_ifstreamIcNS_11char_traitsIcEEED1Ev, symObjAddr: 0x1E30, symBinAddr: 0x100009AEC, symSize: 0x28 }
  - { offsetInCU: 0x17E02, offset: 0x230D2, size: 0x8, addend: 0x0, symName: __ZNSt3__112basic_stringIcNS_11char_traitsIcEENS_9allocatorIcEEEC2B7v160006Ev, symObjAddr: 0x1E58, symBinAddr: 0x100009B14, symSize: 0x54 }
  - { offsetInCU: 0x17E30, offset: 0x23100, size: 0x8, addend: 0x0, symName: __ZNSt3__112basic_stringIcNS_11char_traitsIcEENS_9allocatorIcEEE14__default_initB7v160006Ev, symObjAddr: 0x1EF8, symBinAddr: 0x100009B68, symSize: 0x40 }
  - { offsetInCU: 0x17E55, offset: 0x23125, size: 0x8, addend: 0x0, symName: __ZNSt3__112basic_stringIcNS_11char_traitsIcEENS_9allocatorIcEEE13__move_assignB7v160006ERS5_NS_17integral_constantIbLb1EEE, symObjAddr: 0x202C, symBinAddr: 0x100009BA8, symSize: 0xC8 }
  - { offsetInCU: 0x17E97, offset: 0x23167, size: 0x8, addend: 0x0, symName: __ZNSt3__116allocator_traitsINS_9allocatorIcEEE10deallocateB7v160006ERS2_Pcm, symObjAddr: 0x212C, symBinAddr: 0x100009C70, symSize: 0x34 }
  - { offsetInCU: 0x17ED8, offset: 0x231A8, size: 0x8, addend: 0x0, symName: __ZNSt3__112basic_stringIcNS_11char_traitsIcEENS_9allocatorIcEEE7__allocB7v160006Ev, symObjAddr: 0x2160, symBinAddr: 0x100009CA4, symSize: 0x24 }
  - { offsetInCU: 0x17EFD, offset: 0x231CD, size: 0x8, addend: 0x0, symName: __ZNKSt3__112basic_stringIcNS_11char_traitsIcEENS_9allocatorIcEEE14__get_long_capB7v160006Ev, symObjAddr: 0x21AC, symBinAddr: 0x100009CC8, symSize: 0x30 }
  - { offsetInCU: 0x17F22, offset: 0x231F2, size: 0x8, addend: 0x0, symName: __ZNSt3__112basic_stringIcNS_11char_traitsIcEENS_9allocatorIcEEE19__move_assign_allocB7v160006ERS5_, symObjAddr: 0x21DC, symBinAddr: 0x100009CF8, symSize: 0x2C }
  - { offsetInCU: 0x17F56, offset: 0x23226, size: 0x8, addend: 0x0, symName: __ZNSt3__112basic_stringIcNS_11char_traitsIcEENS_9allocatorIcEEE16__set_short_sizeB7v160006Em, symObjAddr: 0x2208, symBinAddr: 0x100009D24, symSize: 0x78 }
  - { offsetInCU: 0x17F8A, offset: 0x2325A, size: 0x8, addend: 0x0, symName: __ZNSt3__111char_traitsIcE6assignERcRKc, symObjAddr: 0x2280, symBinAddr: 0x100009D9C, symSize: 0x24 }
  - { offsetInCU: 0x17FBB, offset: 0x2328B, size: 0x8, addend: 0x0, symName: __ZNSt3__19allocatorIcE10deallocateB7v160006EPcm, symObjAddr: 0x2304, symBinAddr: 0x100009DC0, symSize: 0x40 }
  - { offsetInCU: 0x17FFC, offset: 0x232CC, size: 0x8, addend: 0x0, symName: __ZNSt3__117__compressed_pairINS_12basic_stringIcNS_11char_traitsIcEENS_9allocatorIcEEE5__repES5_E6secondB7v160006Ev, symObjAddr: 0x246C, symBinAddr: 0x100009F28, symSize: 0x24 }
  - { offsetInCU: 0x18021, offset: 0x232F1, size: 0x8, addend: 0x0, symName: __ZNSt3__122__compressed_pair_elemINS_9allocatorIcEELi1ELb1EE5__getB7v160006Ev, symObjAddr: 0x2490, symBinAddr: 0x100009F4C, symSize: 0x14 }
  - { offsetInCU: 0x18046, offset: 0x23316, size: 0x8, addend: 0x0, symName: __ZNSt3__112basic_stringIcNS_11char_traitsIcEENS_9allocatorIcEEE19__move_assign_allocB7v160006ERS5_NS_17integral_constantIbLb1EEE, symObjAddr: 0x24A4, symBinAddr: 0x100009F60, symSize: 0x38 }
  - { offsetInCU: 0x18086, offset: 0x23356, size: 0x8, addend: 0x0, symName: __ZNKSt3__112basic_stringIcNS_11char_traitsIcEENS_9allocatorIcEEE4sizeB7v160006Ev, symObjAddr: 0x24F0, symBinAddr: 0x100009F98, symSize: 0x54 }
  - { offsetInCU: 0x180AB, offset: 0x2337B, size: 0x8, addend: 0x0, symName: __ZNKSt3__112basic_stringIcNS_11char_traitsIcEENS_9allocatorIcEEE15__get_long_sizeB7v160006Ev, symObjAddr: 0x2544, symBinAddr: 0x100009FEC, symSize: 0x28 }
  - { offsetInCU: 0x180D0, offset: 0x233A0, size: 0x8, addend: 0x0, symName: __ZNKSt3__112basic_stringIcNS_11char_traitsIcEENS_9allocatorIcEEE16__get_short_sizeB7v160006Ev, symObjAddr: 0x256C, symBinAddr: 0x10000A014, symSize: 0x34 }
  - { offsetInCU: 0x180F5, offset: 0x233C5, size: 0x8, addend: 0x0, symName: __ZNSt3__16vectorI6VertexNS_9allocatorIS1_EEEC2B7v160006Ev, symObjAddr: 0x25A0, symBinAddr: 0x10000A048, symSize: 0x58 }
  - { offsetInCU: 0x18123, offset: 0x233F3, size: 0x8, addend: 0x0, symName: __ZNSt3__117__compressed_pairIP6VertexNS_9allocatorIS1_EEEC1B7v160006IDnNS_18__default_init_tagEEEOT_OT0_, symObjAddr: 0x25F8, symBinAddr: 0x10000A0A0, symSize: 0x3C }
  - { offsetInCU: 0x1817A, offset: 0x2344A, size: 0x8, addend: 0x0, symName: __ZNSt3__117__compressed_pairIP6VertexNS_9allocatorIS1_EEEC2B7v160006IDnNS_18__default_init_tagEEEOT_OT0_, symObjAddr: 0x2644, symBinAddr: 0x10000A0EC, symSize: 0x40 }
  - { offsetInCU: 0x181D1, offset: 0x234A1, size: 0x8, addend: 0x0, symName: __ZNSt3__122__compressed_pair_elemIP6VertexLi0ELb0EEC2B7v160006IDnvEEOT_, symObjAddr: 0x2684, symBinAddr: 0x10000A12C, symSize: 0x1C }
  - { offsetInCU: 0x18213, offset: 0x234E3, size: 0x8, addend: 0x0, symName: __ZNSt3__122__compressed_pair_elemINS_9allocatorI6VertexEELi1ELb1EEC2B7v160006ENS_18__default_init_tagE, symObjAddr: 0x26A0, symBinAddr: 0x10000A148, symSize: 0x2C }
  - { offsetInCU: 0x18247, offset: 0x23517, size: 0x8, addend: 0x0, symName: __ZNSt3__19allocatorI6VertexEC2B7v160006Ev, symObjAddr: 0x26CC, symBinAddr: 0x10000A174, symSize: 0x2C }
  - { offsetInCU: 0x18270, offset: 0x23540, size: 0x8, addend: 0x0, symName: __ZNSt3__116__non_trivial_ifILb1ENS_9allocatorI6VertexEEEC2B7v160006Ev, symObjAddr: 0x26F8, symBinAddr: 0x10000A1A0, symSize: 0x14 }
  - { offsetInCU: 0x18299, offset: 0x23569, size: 0x8, addend: 0x0, symName: __ZNSt3__16vectorI8TriangleNS_9allocatorIS1_EEEC2B7v160006Ev, symObjAddr: 0x270C, symBinAddr: 0x10000A1B4, symSize: 0x58 }
  - { offsetInCU: 0x182C2, offset: 0x23592, size: 0x8, addend: 0x0, symName: __ZNSt3__117__compressed_pairIP8TriangleNS_9allocatorIS1_EEEC1B7v160006IDnNS_18__default_init_tagEEEOT_OT0_, symObjAddr: 0x2764, symBinAddr: 0x10000A20C, symSize: 0x3C }
  - { offsetInCU: 0x18319, offset: 0x235E9, size: 0x8, addend: 0x0, symName: __ZNSt3__117__compressed_pairIP8TriangleNS_9allocatorIS1_EEEC2B7v160006IDnNS_18__default_init_tagEEEOT_OT0_, symObjAddr: 0x27B0, symBinAddr: 0x10000A258, symSize: 0x40 }
  - { offsetInCU: 0x18370, offset: 0x23640, size: 0x8, addend: 0x0, symName: __ZNSt3__122__compressed_pair_elemIP8TriangleLi0ELb0EEC2B7v160006IDnvEEOT_, symObjAddr: 0x27F0, symBinAddr: 0x10000A298, symSize: 0x1C }
  - { offsetInCU: 0x183B2, offset: 0x23682, size: 0x8, addend: 0x0, symName: __ZNSt3__122__compressed_pair_elemINS_9allocatorI8TriangleEELi1ELb1EEC2B7v160006ENS_18__default_init_tagE, symObjAddr: 0x280C, symBinAddr: 0x10000A2B4, symSize: 0x2C }
  - { offsetInCU: 0x183E6, offset: 0x236B6, size: 0x8, addend: 0x0, symName: __ZNSt3__19allocatorI8TriangleEC2B7v160006Ev, symObjAddr: 0x2838, symBinAddr: 0x10000A2E0, symSize: 0x2C }
  - { offsetInCU: 0x1840F, offset: 0x236DF, size: 0x8, addend: 0x0, symName: __ZNSt3__116__non_trivial_ifILb1ENS_9allocatorI8TriangleEEEC2B7v160006Ev, symObjAddr: 0x2864, symBinAddr: 0x10000A30C, symSize: 0x14 }
  - { offsetInCU: 0x18438, offset: 0x23708, size: 0x8, addend: 0x0, symName: __ZNSt3__16vectorI6VertexNS_9allocatorIS1_EEED2B7v160006Ev, symObjAddr: 0x2878, symBinAddr: 0x10000A320, symSize: 0x44 }
  - { offsetInCU: 0x18461, offset: 0x23731, size: 0x8, addend: 0x0, symName: __ZNSt3__16vectorI6VertexNS_9allocatorIS1_EEE16__destroy_vectorC1ERS4_, symObjAddr: 0x28BC, symBinAddr: 0x10000A364, symSize: 0x34 }
  - { offsetInCU: 0x18499, offset: 0x23769, size: 0x8, addend: 0x0, symName: __ZNSt3__16vectorI6VertexNS_9allocatorIS1_EEE16__destroy_vectorclB7v160006Ev, symObjAddr: 0x28F0, symBinAddr: 0x10000A398, symSize: 0x9C }
  - { offsetInCU: 0x184BE, offset: 0x2378E, size: 0x8, addend: 0x0, symName: __ZNSt3__16vectorI6VertexNS_9allocatorIS1_EEE16__destroy_vectorC2ERS4_, symObjAddr: 0x298C, symBinAddr: 0x10000A434, symSize: 0x20 }
  - { offsetInCU: 0x184F6, offset: 0x237C6, size: 0x8, addend: 0x0, symName: __ZNKSt3__16vectorI6VertexNS_9allocatorIS1_EEE17__annotate_deleteB7v160006Ev, symObjAddr: 0x29AC, symBinAddr: 0x10000A454, symSize: 0xD4 }
  - { offsetInCU: 0x1851B, offset: 0x237EB, size: 0x8, addend: 0x0, symName: __ZNSt3__16vectorI6VertexNS_9allocatorIS1_EEE7__clearB7v160006Ev, symObjAddr: 0x2A90, symBinAddr: 0x10000A538, symSize: 0x28 }
  - { offsetInCU: 0x18540, offset: 0x23810, size: 0x8, addend: 0x0, symName: __ZNSt3__116allocator_traitsINS_9allocatorI6VertexEEE10deallocateB7v160006ERS3_PS2_m, symObjAddr: 0x2AB8, symBinAddr: 0x10000A560, symSize: 0x34 }
  - { offsetInCU: 0x18581, offset: 0x23851, size: 0x8, addend: 0x0, symName: __ZNSt3__16vectorI6VertexNS_9allocatorIS1_EEE7__allocB7v160006Ev, symObjAddr: 0x2AEC, symBinAddr: 0x10000A594, symSize: 0x28 }
  - { offsetInCU: 0x185A6, offset: 0x23876, size: 0x8, addend: 0x0, symName: __ZNKSt3__16vectorI6VertexNS_9allocatorIS1_EEE8capacityB7v160006Ev, symObjAddr: 0x2B14, symBinAddr: 0x10000A5BC, symSize: 0x40 }
  - { offsetInCU: 0x185CB, offset: 0x2389B, size: 0x8, addend: 0x0, symName: __ZNKSt3__16vectorI6VertexNS_9allocatorIS1_EEE31__annotate_contiguous_containerB7v160006EPKvS6_S6_S6_, symObjAddr: 0x2B54, symBinAddr: 0x10000A5FC, symSize: 0x20 }
  - { offsetInCU: 0x18620, offset: 0x238F0, size: 0x8, addend: 0x0, symName: __ZNKSt3__16vectorI6VertexNS_9allocatorIS1_EEE4dataB7v160006Ev, symObjAddr: 0x2B74, symBinAddr: 0x10000A61C, symSize: 0x28 }
  - { offsetInCU: 0x18645, offset: 0x23915, size: 0x8, addend: 0x0, symName: __ZNSt3__16vectorI6VertexNS_9allocatorIS1_EEE22__base_destruct_at_endB7v160006EPS1_, symObjAddr: 0x2BB0, symBinAddr: 0x10000A658, symSize: 0x8C }
  - { offsetInCU: 0x18688, offset: 0x23958, size: 0x8, addend: 0x0, symName: __ZNSt3__116allocator_traitsINS_9allocatorI6VertexEEE7destroyB7v160006IS2_vEEvRS3_PT_, symObjAddr: 0x2C3C, symBinAddr: 0x10000A6E4, symSize: 0x2C }
  - { offsetInCU: 0x186C5, offset: 0x23995, size: 0x8, addend: 0x0, symName: __ZNSt3__19allocatorI6VertexE7destroyB7v160006EPS1_, symObjAddr: 0x2C68, symBinAddr: 0x10000A710, symSize: 0x14 }
  - { offsetInCU: 0x186F8, offset: 0x239C8, size: 0x8, addend: 0x0, symName: __ZNSt3__19allocatorI6VertexE10deallocateB7v160006EPS1_m, symObjAddr: 0x2C7C, symBinAddr: 0x10000A724, symSize: 0x44 }
  - { offsetInCU: 0x18739, offset: 0x23A09, size: 0x8, addend: 0x0, symName: __ZNSt3__117__compressed_pairIP6VertexNS_9allocatorIS1_EEE6secondB7v160006Ev, symObjAddr: 0x2CC0, symBinAddr: 0x10000A768, symSize: 0x24 }
  - { offsetInCU: 0x1875E, offset: 0x23A2E, size: 0x8, addend: 0x0, symName: __ZNSt3__122__compressed_pair_elemINS_9allocatorI6VertexEELi1ELb1EE5__getB7v160006Ev, symObjAddr: 0x2CE4, symBinAddr: 0x10000A78C, symSize: 0x14 }
  - { offsetInCU: 0x18783, offset: 0x23A53, size: 0x8, addend: 0x0, symName: __ZNKSt3__16vectorI6VertexNS_9allocatorIS1_EEE9__end_capB7v160006Ev, symObjAddr: 0x2CF8, symBinAddr: 0x10000A7A0, symSize: 0x28 }
  - { offsetInCU: 0x187A8, offset: 0x23A78, size: 0x8, addend: 0x0, symName: __ZNKSt3__117__compressed_pairIP6VertexNS_9allocatorIS1_EEE5firstB7v160006Ev, symObjAddr: 0x2D20, symBinAddr: 0x10000A7C8, symSize: 0x24 }
  - { offsetInCU: 0x187CD, offset: 0x23A9D, size: 0x8, addend: 0x0, symName: __ZNKSt3__122__compressed_pair_elemIP6VertexLi0ELb0EE5__getB7v160006Ev, symObjAddr: 0x2D44, symBinAddr: 0x10000A7EC, symSize: 0x14 }
  - { offsetInCU: 0x187F2, offset: 0x23AC2, size: 0x8, addend: 0x0, symName: __ZNSt3__16vectorI8TriangleNS_9allocatorIS1_EEED2B7v160006Ev, symObjAddr: 0x2D58, symBinAddr: 0x10000A800, symSize: 0x44 }
  - { offsetInCU: 0x1881B, offset: 0x23AEB, size: 0x8, addend: 0x0, symName: __ZNSt3__16vectorI8TriangleNS_9allocatorIS1_EEE16__destroy_vectorC1ERS4_, symObjAddr: 0x2D9C, symBinAddr: 0x10000A844, symSize: 0x34 }
  - { offsetInCU: 0x18853, offset: 0x23B23, size: 0x8, addend: 0x0, symName: __ZNSt3__16vectorI8TriangleNS_9allocatorIS1_EEE16__destroy_vectorclB7v160006Ev, symObjAddr: 0x2DD0, symBinAddr: 0x10000A878, symSize: 0x9C }
  - { offsetInCU: 0x18878, offset: 0x23B48, size: 0x8, addend: 0x0, symName: __ZNSt3__16vectorI8TriangleNS_9allocatorIS1_EEE16__destroy_vectorC2ERS4_, symObjAddr: 0x2E6C, symBinAddr: 0x10000A914, symSize: 0x20 }
  - { offsetInCU: 0x188B0, offset: 0x23B80, size: 0x8, addend: 0x0, symName: __ZNKSt3__16vectorI8TriangleNS_9allocatorIS1_EEE17__annotate_deleteB7v160006Ev, symObjAddr: 0x2E8C, symBinAddr: 0x10000A934, symSize: 0xD4 }
  - { offsetInCU: 0x188D5, offset: 0x23BA5, size: 0x8, addend: 0x0, symName: __ZNSt3__16vectorI8TriangleNS_9allocatorIS1_EEE7__clearB7v160006Ev, symObjAddr: 0x2F70, symBinAddr: 0x10000AA18, symSize: 0x28 }
  - { offsetInCU: 0x188FA, offset: 0x23BCA, size: 0x8, addend: 0x0, symName: __ZNSt3__116allocator_traitsINS_9allocatorI8TriangleEEE10deallocateB7v160006ERS3_PS2_m, symObjAddr: 0x2F98, symBinAddr: 0x10000AA40, symSize: 0x34 }
  - { offsetInCU: 0x1893B, offset: 0x23C0B, size: 0x8, addend: 0x0, symName: __ZNSt3__16vectorI8TriangleNS_9allocatorIS1_EEE7__allocB7v160006Ev, symObjAddr: 0x2FCC, symBinAddr: 0x10000AA74, symSize: 0x28 }
  - { offsetInCU: 0x18960, offset: 0x23C30, size: 0x8, addend: 0x0, symName: __ZNKSt3__16vectorI8TriangleNS_9allocatorIS1_EEE8capacityB7v160006Ev, symObjAddr: 0x2FF4, symBinAddr: 0x10000AA9C, symSize: 0x40 }
  - { offsetInCU: 0x18985, offset: 0x23C55, size: 0x8, addend: 0x0, symName: __ZNKSt3__16vectorI8TriangleNS_9allocatorIS1_EEE31__annotate_contiguous_containerB7v160006EPKvS6_S6_S6_, symObjAddr: 0x3034, symBinAddr: 0x10000AADC, symSize: 0x20 }
  - { offsetInCU: 0x189DA, offset: 0x23CAA, size: 0x8, addend: 0x0, symName: __ZNKSt3__16vectorI8TriangleNS_9allocatorIS1_EEE4dataB7v160006Ev, symObjAddr: 0x3054, symBinAddr: 0x10000AAFC, symSize: 0x28 }
  - { offsetInCU: 0x189FF, offset: 0x23CCF, size: 0x8, addend: 0x0, symName: __ZNKSt3__16vectorI8TriangleNS_9allocatorIS1_EEE4sizeB7v160006Ev, symObjAddr: 0x307C, symBinAddr: 0x10000AB24, symSize: 0x28 }
  - { offsetInCU: 0x18A24, offset: 0x23CF4, size: 0x8, addend: 0x0, symName: __ZNSt3__16vectorI8TriangleNS_9allocatorIS1_EEE22__base_destruct_at_endB7v160006EPS1_, symObjAddr: 0x30B8, symBinAddr: 0x10000AB60, symSize: 0x8C }
  - { offsetInCU: 0x18A67, offset: 0x23D37, size: 0x8, addend: 0x0, symName: __ZNSt3__116allocator_traitsINS_9allocatorI8TriangleEEE7destroyB7v160006IS2_vEEvRS3_PT_, symObjAddr: 0x3144, symBinAddr: 0x10000ABEC, symSize: 0x2C }
  - { offsetInCU: 0x18AA4, offset: 0x23D74, size: 0x8, addend: 0x0, symName: __ZNSt3__19allocatorI8TriangleE7destroyB7v160006EPS1_, symObjAddr: 0x3170, symBinAddr: 0x10000AC18, symSize: 0x14 }
  - { offsetInCU: 0x18AD7, offset: 0x23DA7, size: 0x8, addend: 0x0, symName: __ZNSt3__19allocatorI8TriangleE10deallocateB7v160006EPS1_m, symObjAddr: 0x3184, symBinAddr: 0x10000AC2C, symSize: 0x44 }
  - { offsetInCU: 0x18B18, offset: 0x23DE8, size: 0x8, addend: 0x0, symName: __ZNSt3__117__compressed_pairIP8TriangleNS_9allocatorIS1_EEE6secondB7v160006Ev, symObjAddr: 0x31C8, symBinAddr: 0x10000AC70, symSize: 0x24 }
  - { offsetInCU: 0x18B3D, offset: 0x23E0D, size: 0x8, addend: 0x0, symName: __ZNSt3__122__compressed_pair_elemINS_9allocatorI8TriangleEELi1ELb1EE5__getB7v160006Ev, symObjAddr: 0x31EC, symBinAddr: 0x10000AC94, symSize: 0x14 }
  - { offsetInCU: 0x18B62, offset: 0x23E32, size: 0x8, addend: 0x0, symName: __ZNKSt3__16vectorI8TriangleNS_9allocatorIS1_EEE9__end_capB7v160006Ev, symObjAddr: 0x3200, symBinAddr: 0x10000ACA8, symSize: 0x28 }
  - { offsetInCU: 0x18B87, offset: 0x23E57, size: 0x8, addend: 0x0, symName: __ZNKSt3__117__compressed_pairIP8TriangleNS_9allocatorIS1_EEE5firstB7v160006Ev, symObjAddr: 0x3228, symBinAddr: 0x10000ACD0, symSize: 0x24 }
  - { offsetInCU: 0x18BAC, offset: 0x23E7C, size: 0x8, addend: 0x0, symName: __ZNKSt3__122__compressed_pair_elemIP8TriangleLi0ELb0EE5__getB7v160006Ev, symObjAddr: 0x324C, symBinAddr: 0x10000ACF4, symSize: 0x14 }
  - { offsetInCU: 0x18BD1, offset: 0x23EA1, size: 0x8, addend: 0x0, symName: __ZNSt3__16vectorI6VertexNS_9allocatorIS1_EEEC2ERKS4_, symObjAddr: 0x3260, symBinAddr: 0x10000AD08, symSize: 0x110 }
  - { offsetInCU: 0x18C39, offset: 0x23F09, size: 0x8, addend: 0x0, symName: __ZNSt3__116allocator_traitsINS_9allocatorI6VertexEEE37select_on_container_copy_constructionB7v160006IS3_vvEES3_RKS3_, symObjAddr: 0x3370, symBinAddr: 0x10000AE18, symSize: 0x10 }
  - { offsetInCU: 0x18C6A, offset: 0x23F3A, size: 0x8, addend: 0x0, symName: __ZNKSt3__16vectorI6VertexNS_9allocatorIS1_EEE7__allocB7v160006Ev, symObjAddr: 0x3380, symBinAddr: 0x10000AE28, symSize: 0x28 }
  - { offsetInCU: 0x18C94, offset: 0x23F64, size: 0x8, addend: 0x0, symName: __ZNSt3__117__compressed_pairIP6VertexNS_9allocatorIS1_EEEC1B7v160006IDnS4_EEOT_OT0_, symObjAddr: 0x33A8, symBinAddr: 0x10000AE50, symSize: 0x3C }
  - { offsetInCU: 0x18CEB, offset: 0x23FBB, size: 0x8, addend: 0x0, symName: __ZNSt3__16vectorI6VertexNS_9allocatorIS1_EEE11__vallocateB7v160006Em, symObjAddr: 0x3424, symBinAddr: 0x10000AECC, symSize: 0xB4 }
  - { offsetInCU: 0x18D2E, offset: 0x23FFE, size: 0x8, addend: 0x0, symName: __ZNSt3__16vectorI6VertexNS_9allocatorIS1_EEE18__construct_at_endIPS1_Li0EEEvT_S7_m, symObjAddr: 0x34D8, symBinAddr: 0x10000AF80, symSize: 0x8C }
  - { offsetInCU: 0x18DA1, offset: 0x24071, size: 0x8, addend: 0x0, symName: __ZNSt3__128__exception_guard_exceptionsINS_6vectorI6VertexNS_9allocatorIS2_EEE16__destroy_vectorEE10__completeB7v160006Ev, symObjAddr: 0x3564, symBinAddr: 0x10000B00C, symSize: 0x1C }
  - { offsetInCU: 0x18DC6, offset: 0x24096, size: 0x8, addend: 0x0, symName: __ZNSt3__128__exception_guard_exceptionsINS_6vectorI6VertexNS_9allocatorIS2_EEE16__destroy_vectorEED1B7v160006Ev, symObjAddr: 0x3580, symBinAddr: 0x10000B028, symSize: 0x2C }
  - { offsetInCU: 0x18DEF, offset: 0x240BF, size: 0x8, addend: 0x0, symName: __ZNKSt3__117__compressed_pairIP6VertexNS_9allocatorIS1_EEE6secondB7v160006Ev, symObjAddr: 0x35AC, symBinAddr: 0x10000B054, symSize: 0x24 }
  - { offsetInCU: 0x18E14, offset: 0x240E4, size: 0x8, addend: 0x0, symName: __ZNKSt3__122__compressed_pair_elemINS_9allocatorI6VertexEELi1ELb1EE5__getB7v160006Ev, symObjAddr: 0x35D0, symBinAddr: 0x10000B078, symSize: 0x14 }
  - { offsetInCU: 0x18E39, offset: 0x24109, size: 0x8, addend: 0x0, symName: __ZNSt3__117__compressed_pairIP6VertexNS_9allocatorIS1_EEEC2B7v160006IDnS4_EEOT_OT0_, symObjAddr: 0x35E4, symBinAddr: 0x10000B08C, symSize: 0x44 }
  - { offsetInCU: 0x18E90, offset: 0x24160, size: 0x8, addend: 0x0, symName: __ZNSt3__122__compressed_pair_elemINS_9allocatorI6VertexEELi1ELb1EEC2B7v160006IS3_vEEOT_, symObjAddr: 0x3628, symBinAddr: 0x10000B0D0, symSize: 0x18 }
  - { offsetInCU: 0x18ED2, offset: 0x241A2, size: 0x8, addend: 0x0, symName: __ZNSt3__128__exception_guard_exceptionsINS_6vectorI6VertexNS_9allocatorIS2_EEE16__destroy_vectorEEC1B7v160006ES6_, symObjAddr: 0x3640, symBinAddr: 0x10000B0E8, symSize: 0x34 }
  - { offsetInCU: 0x18F09, offset: 0x241D9, size: 0x8, addend: 0x0, symName: __ZNSt3__128__exception_guard_exceptionsINS_6vectorI6VertexNS_9allocatorIS2_EEE16__destroy_vectorEEC2B7v160006ES6_, symObjAddr: 0x3674, symBinAddr: 0x10000B11C, symSize: 0x24 }
  - { offsetInCU: 0x18F40, offset: 0x24210, size: 0x8, addend: 0x0, symName: __ZNKSt3__16vectorI6VertexNS_9allocatorIS1_EEE8max_sizeEv, symObjAddr: 0x3698, symBinAddr: 0x10000B140, symSize: 0x60 }
  - { offsetInCU: 0x18F67, offset: 0x24237, size: 0x8, addend: 0x0, symName: __ZNKSt3__16vectorI6VertexNS_9allocatorIS1_EEE20__throw_length_errorB7v160006Ev, symObjAddr: 0x36F8, symBinAddr: 0x10000B1A0, symSize: 0x1C }
  - { offsetInCU: 0x18F8C, offset: 0x2425C, size: 0x8, addend: 0x0, symName: __ZNSt3__16vectorI6VertexNS_9allocatorIS1_EEE9__end_capB7v160006Ev, symObjAddr: 0x3754, symBinAddr: 0x10000B1FC, symSize: 0x28 }
  - { offsetInCU: 0x18FB1, offset: 0x24281, size: 0x8, addend: 0x0, symName: __ZNKSt3__16vectorI6VertexNS_9allocatorIS1_EEE14__annotate_newB7v160006Em, symObjAddr: 0x377C, symBinAddr: 0x10000B224, symSize: 0xC8 }
  - { offsetInCU: 0x18FE5, offset: 0x242B5, size: 0x8, addend: 0x0, symName: __ZNSt3__116allocator_traitsINS_9allocatorI6VertexEEE8max_sizeB7v160006IS3_vEEmRKS3_, symObjAddr: 0x3870, symBinAddr: 0x10000B318, symSize: 0x24 }
  - { offsetInCU: 0x19013, offset: 0x242E3, size: 0x8, addend: 0x0, symName: __ZNSt3__114numeric_limitsIlE3maxB7v160006Ev, symObjAddr: 0x3894, symBinAddr: 0x10000B33C, symSize: 0x14 }
  - { offsetInCU: 0x1903B, offset: 0x2430B, size: 0x8, addend: 0x0, symName: __ZNKSt3__16__lessImmEclB7v160006ERKmS3_, symObjAddr: 0x38FC, symBinAddr: 0x10000B3A4, symSize: 0x34 }
  - { offsetInCU: 0x1907C, offset: 0x2434C, size: 0x8, addend: 0x0, symName: __ZNKSt3__19allocatorI6VertexE8max_sizeB7v160006Ev, symObjAddr: 0x3930, symBinAddr: 0x10000B3D8, symSize: 0x18 }
  - { offsetInCU: 0x190A1, offset: 0x24371, size: 0x8, addend: 0x0, symName: __ZNSt3__123__libcpp_numeric_limitsIlLb1EE3maxB7v160006Ev, symObjAddr: 0x3948, symBinAddr: 0x10000B3F0, symSize: 0x8 }
  - { offsetInCU: 0x190B5, offset: 0x24385, size: 0x8, addend: 0x0, symName: __ZNSt12length_errorC1B7v160006EPKc, symObjAddr: 0x39B4, symBinAddr: 0x10000B45C, symSize: 0x34 }
  - { offsetInCU: 0x190EC, offset: 0x243BC, size: 0x8, addend: 0x0, symName: __ZNSt12length_errorC2B7v160006EPKc, symObjAddr: 0x39E8, symBinAddr: 0x10000B490, symSize: 0x4C }
  - { offsetInCU: 0x19123, offset: 0x243F3, size: 0x8, addend: 0x0, symName: __ZNSt3__19allocatorI6VertexE8allocateB7v160006Em, symObjAddr: 0x3A34, symBinAddr: 0x10000B4DC, symSize: 0x5C }
  - { offsetInCU: 0x19156, offset: 0x24426, size: 0x8, addend: 0x0, symName: __ZNSt3__117__compressed_pairIP6VertexNS_9allocatorIS1_EEE5firstB7v160006Ev, symObjAddr: 0x3B74, symBinAddr: 0x10000B61C, symSize: 0x24 }
  - { offsetInCU: 0x1917B, offset: 0x2444B, size: 0x8, addend: 0x0, symName: __ZNSt3__122__compressed_pair_elemIP6VertexLi0ELb0EE5__getB7v160006Ev, symObjAddr: 0x3B98, symBinAddr: 0x10000B640, symSize: 0x14 }
  - { offsetInCU: 0x191B9, offset: 0x24489, size: 0x8, addend: 0x0, symName: __ZNSt3__16vectorI6VertexNS_9allocatorIS1_EEE21_ConstructTransactionC1B7v160006ERS4_m, symObjAddr: 0x3BAC, symBinAddr: 0x10000B654, symSize: 0x3C }
  - { offsetInCU: 0x19200, offset: 0x244D0, size: 0x8, addend: 0x0, symName: __ZNSt3__16vectorI6VertexNS_9allocatorIS1_EEE21_ConstructTransactionD1B7v160006Ev, symObjAddr: 0x3CDC, symBinAddr: 0x10000B784, symSize: 0x2C }
  - { offsetInCU: 0x19229, offset: 0x244F9, size: 0x8, addend: 0x0, symName: __ZNSt3__16vectorI6VertexNS_9allocatorIS1_EEE21_ConstructTransactionC2B7v160006ERS4_m, symObjAddr: 0x3D08, symBinAddr: 0x10000B7B0, symSize: 0x4C }
  - { offsetInCU: 0x19270, offset: 0x24540, size: 0x8, addend: 0x0, symName: __ZNSt3__129_AllocatorDestroyRangeReverseINS_9allocatorI6VertexEEPS2_EC1B7v160006ERS3_RS4_S7_, symObjAddr: 0x3DA0, symBinAddr: 0x10000B848, symSize: 0x44 }
  - { offsetInCU: 0x192C6, offset: 0x24596, size: 0x8, addend: 0x0, symName: __ZNSt3__116allocator_traitsINS_9allocatorI6VertexEEE9constructB7v160006IS2_JRS2_EvEEvRS3_PT_DpOT0_, symObjAddr: 0x3DE4, symBinAddr: 0x10000B88C, symSize: 0x34 }
  - { offsetInCU: 0x1931F, offset: 0x245EF, size: 0x8, addend: 0x0, symName: __ZNSt3__128__exception_guard_exceptionsINS_29_AllocatorDestroyRangeReverseINS_9allocatorI6VertexEEPS3_EEE10__completeB7v160006Ev, symObjAddr: 0x3E18, symBinAddr: 0x10000B8C0, symSize: 0x1C }
  - { offsetInCU: 0x19344, offset: 0x24614, size: 0x8, addend: 0x0, symName: __ZNSt3__128__exception_guard_exceptionsINS_29_AllocatorDestroyRangeReverseINS_9allocatorI6VertexEEPS3_EEED1B7v160006Ev, symObjAddr: 0x3E34, symBinAddr: 0x10000B8DC, symSize: 0x2C }
  - { offsetInCU: 0x1936D, offset: 0x2463D, size: 0x8, addend: 0x0, symName: __ZNSt3__128__exception_guard_exceptionsINS_29_AllocatorDestroyRangeReverseINS_9allocatorI6VertexEEPS3_EEEC1B7v160006ES6_, symObjAddr: 0x3E60, symBinAddr: 0x10000B908, symSize: 0x34 }
  - { offsetInCU: 0x193A5, offset: 0x24675, size: 0x8, addend: 0x0, symName: __ZNSt3__128__exception_guard_exceptionsINS_29_AllocatorDestroyRangeReverseINS_9allocatorI6VertexEEPS3_EEEC2B7v160006ES6_, symObjAddr: 0x3E94, symBinAddr: 0x10000B93C, symSize: 0x30 }
  - { offsetInCU: 0x193DD, offset: 0x246AD, size: 0x8, addend: 0x0, symName: __ZNSt3__129_AllocatorDestroyRangeReverseINS_9allocatorI6VertexEEPS2_EC2B7v160006ERS3_RS4_S7_, symObjAddr: 0x3EC4, symBinAddr: 0x10000B96C, symSize: 0x38 }
  - { offsetInCU: 0x19433, offset: 0x24703, size: 0x8, addend: 0x0, symName: __ZNSt3__19allocatorI6VertexE9constructB7v160006IS1_JRS1_EEEvPT_DpOT0_, symObjAddr: 0x3EFC, symBinAddr: 0x10000B9A4, symSize: 0x30 }
  - { offsetInCU: 0x1948A, offset: 0x2475A, size: 0x8, addend: 0x0, symName: __ZNSt3__128__exception_guard_exceptionsINS_29_AllocatorDestroyRangeReverseINS_9allocatorI6VertexEEPS3_EEED2B7v160006Ev, symObjAddr: 0x3F2C, symBinAddr: 0x10000B9D4, symSize: 0x50 }
  - { offsetInCU: 0x194B3, offset: 0x24783, size: 0x8, addend: 0x0, symName: __ZNKSt3__129_AllocatorDestroyRangeReverseINS_9allocatorI6VertexEEPS2_EclB7v160006Ev, symObjAddr: 0x3F7C, symBinAddr: 0x10000BA24, symSize: 0x68 }
  - { offsetInCU: 0x194D8, offset: 0x247A8, size: 0x8, addend: 0x0, symName: __ZNSt3__116reverse_iteratorIP6VertexEC1B7v160006ES2_, symObjAddr: 0x4054, symBinAddr: 0x10000BAFC, symSize: 0x34 }
  - { offsetInCU: 0x1950F, offset: 0x247DF, size: 0x8, addend: 0x0, symName: __ZNSt3__116reverse_iteratorIP6VertexEppB7v160006Ev, symObjAddr: 0x40F4, symBinAddr: 0x10000BB9C, symSize: 0x20 }
  - { offsetInCU: 0x19534, offset: 0x24804, size: 0x8, addend: 0x0, symName: __ZNKSt3__116reverse_iteratorIP6VertexE4baseB7v160006Ev, symObjAddr: 0x4114, symBinAddr: 0x10000BBBC, symSize: 0x18 }
  - { offsetInCU: 0x1955E, offset: 0x2482E, size: 0x8, addend: 0x0, symName: __ZNSt3__119__to_address_helperINS_16reverse_iteratorIP6VertexEEvE6__callB7v160006ERKS4_, symObjAddr: 0x412C, symBinAddr: 0x10000BBD4, symSize: 0x38 }
  - { offsetInCU: 0x19580, offset: 0x24850, size: 0x8, addend: 0x0, symName: __ZNKSt3__116reverse_iteratorIP6VertexEptB7v160006Ev, symObjAddr: 0x4164, symBinAddr: 0x10000BC0C, symSize: 0x24 }
  - { offsetInCU: 0x195A5, offset: 0x24875, size: 0x8, addend: 0x0, symName: __ZNKSt3__116reverse_iteratorIP6VertexEdeB7v160006Ev, symObjAddr: 0x4188, symBinAddr: 0x10000BC30, symSize: 0x28 }
  - { offsetInCU: 0x195D8, offset: 0x248A8, size: 0x8, addend: 0x0, symName: __ZNSt3__116reverse_iteratorIP6VertexEC2B7v160006ES2_, symObjAddr: 0x41B0, symBinAddr: 0x10000BC58, symSize: 0x28 }
  - { offsetInCU: 0x1960F, offset: 0x248DF, size: 0x8, addend: 0x0, symName: __ZNSt3__16vectorI6VertexNS_9allocatorIS1_EEE21_ConstructTransactionD2B7v160006Ev, symObjAddr: 0x41D8, symBinAddr: 0x10000BC80, symSize: 0x20 }
  - { offsetInCU: 0x19638, offset: 0x24908, size: 0x8, addend: 0x0, symName: __ZNSt3__128__exception_guard_exceptionsINS_6vectorI6VertexNS_9allocatorIS2_EEE16__destroy_vectorEED2B7v160006Ev, symObjAddr: 0x41F8, symBinAddr: 0x10000BCA0, symSize: 0x50 }
  - { offsetInCU: 0x19661, offset: 0x24931, size: 0x8, addend: 0x0, symName: __ZNSt3__16vectorI8TriangleNS_9allocatorIS1_EEEC2ERKS4_, symObjAddr: 0x4248, symBinAddr: 0x10000BCF0, symSize: 0x110 }
  - { offsetInCU: 0x196C9, offset: 0x24999, size: 0x8, addend: 0x0, symName: __ZNSt3__116allocator_traitsINS_9allocatorI8TriangleEEE37select_on_container_copy_constructionB7v160006IS3_vvEES3_RKS3_, symObjAddr: 0x4358, symBinAddr: 0x10000BE00, symSize: 0x10 }
  - { offsetInCU: 0x196FA, offset: 0x249CA, size: 0x8, addend: 0x0, symName: __ZNKSt3__16vectorI8TriangleNS_9allocatorIS1_EEE7__allocB7v160006Ev, symObjAddr: 0x4368, symBinAddr: 0x10000BE10, symSize: 0x28 }
  - { offsetInCU: 0x19724, offset: 0x249F4, size: 0x8, addend: 0x0, symName: __ZNSt3__117__compressed_pairIP8TriangleNS_9allocatorIS1_EEEC1B7v160006IDnS4_EEOT_OT0_, symObjAddr: 0x4390, symBinAddr: 0x10000BE38, symSize: 0x3C }
  - { offsetInCU: 0x1977B, offset: 0x24A4B, size: 0x8, addend: 0x0, symName: __ZNSt3__16vectorI8TriangleNS_9allocatorIS1_EEE11__vallocateB7v160006Em, symObjAddr: 0x440C, symBinAddr: 0x10000BEB4, symSize: 0xB4 }
  - { offsetInCU: 0x197BE, offset: 0x24A8E, size: 0x8, addend: 0x0, symName: __ZNSt3__16vectorI8TriangleNS_9allocatorIS1_EEE18__construct_at_endIPS1_Li0EEEvT_S7_m, symObjAddr: 0x44C0, symBinAddr: 0x10000BF68, symSize: 0x8C }
  - { offsetInCU: 0x19831, offset: 0x24B01, size: 0x8, addend: 0x0, symName: __ZNSt3__128__exception_guard_exceptionsINS_6vectorI8TriangleNS_9allocatorIS2_EEE16__destroy_vectorEE10__completeB7v160006Ev, symObjAddr: 0x454C, symBinAddr: 0x10000BFF4, symSize: 0x1C }
  - { offsetInCU: 0x19856, offset: 0x24B26, size: 0x8, addend: 0x0, symName: __ZNSt3__128__exception_guard_exceptionsINS_6vectorI8TriangleNS_9allocatorIS2_EEE16__destroy_vectorEED1B7v160006Ev, symObjAddr: 0x4568, symBinAddr: 0x10000C010, symSize: 0x2C }
  - { offsetInCU: 0x1987F, offset: 0x24B4F, size: 0x8, addend: 0x0, symName: __ZNKSt3__117__compressed_pairIP8TriangleNS_9allocatorIS1_EEE6secondB7v160006Ev, symObjAddr: 0x4594, symBinAddr: 0x10000C03C, symSize: 0x24 }
  - { offsetInCU: 0x198A4, offset: 0x24B74, size: 0x8, addend: 0x0, symName: __ZNKSt3__122__compressed_pair_elemINS_9allocatorI8TriangleEELi1ELb1EE5__getB7v160006Ev, symObjAddr: 0x45B8, symBinAddr: 0x10000C060, symSize: 0x14 }
  - { offsetInCU: 0x198C9, offset: 0x24B99, size: 0x8, addend: 0x0, symName: __ZNSt3__117__compressed_pairIP8TriangleNS_9allocatorIS1_EEEC2B7v160006IDnS4_EEOT_OT0_, symObjAddr: 0x45CC, symBinAddr: 0x10000C074, symSize: 0x44 }
  - { offsetInCU: 0x19920, offset: 0x24BF0, size: 0x8, addend: 0x0, symName: __ZNSt3__122__compressed_pair_elemINS_9allocatorI8TriangleEELi1ELb1EEC2B7v160006IS3_vEEOT_, symObjAddr: 0x4610, symBinAddr: 0x10000C0B8, symSize: 0x18 }
  - { offsetInCU: 0x19962, offset: 0x24C32, size: 0x8, addend: 0x0, symName: __ZNSt3__128__exception_guard_exceptionsINS_6vectorI8TriangleNS_9allocatorIS2_EEE16__destroy_vectorEEC1B7v160006ES6_, symObjAddr: 0x4628, symBinAddr: 0x10000C0D0, symSize: 0x34 }
  - { offsetInCU: 0x19999, offset: 0x24C69, size: 0x8, addend: 0x0, symName: __ZNSt3__128__exception_guard_exceptionsINS_6vectorI8TriangleNS_9allocatorIS2_EEE16__destroy_vectorEEC2B7v160006ES6_, symObjAddr: 0x465C, symBinAddr: 0x10000C104, symSize: 0x24 }
  - { offsetInCU: 0x199D0, offset: 0x24CA0, size: 0x8, addend: 0x0, symName: __ZNKSt3__16vectorI8TriangleNS_9allocatorIS1_EEE8max_sizeEv, symObjAddr: 0x4680, symBinAddr: 0x10000C128, symSize: 0x60 }
  - { offsetInCU: 0x199F7, offset: 0x24CC7, size: 0x8, addend: 0x0, symName: __ZNKSt3__16vectorI8TriangleNS_9allocatorIS1_EEE20__throw_length_errorB7v160006Ev, symObjAddr: 0x46E0, symBinAddr: 0x10000C188, symSize: 0x1C }
  - { offsetInCU: 0x19A1C, offset: 0x24CEC, size: 0x8, addend: 0x0, symName: __ZNSt3__16vectorI8TriangleNS_9allocatorIS1_EEE9__end_capB7v160006Ev, symObjAddr: 0x473C, symBinAddr: 0x10000C1E4, symSize: 0x28 }
  - { offsetInCU: 0x19A41, offset: 0x24D11, size: 0x8, addend: 0x0, symName: __ZNKSt3__16vectorI8TriangleNS_9allocatorIS1_EEE14__annotate_newB7v160006Em, symObjAddr: 0x4764, symBinAddr: 0x10000C20C, symSize: 0xC8 }
  - { offsetInCU: 0x19A75, offset: 0x24D45, size: 0x8, addend: 0x0, symName: __ZNSt3__116allocator_traitsINS_9allocatorI8TriangleEEE8max_sizeB7v160006IS3_vEEmRKS3_, symObjAddr: 0x482C, symBinAddr: 0x10000C2D4, symSize: 0x24 }
  - { offsetInCU: 0x19AA3, offset: 0x24D73, size: 0x8, addend: 0x0, symName: __ZNKSt3__19allocatorI8TriangleE8max_sizeB7v160006Ev, symObjAddr: 0x4850, symBinAddr: 0x10000C2F8, symSize: 0x18 }
  - { offsetInCU: 0x19AC8, offset: 0x24D98, size: 0x8, addend: 0x0, symName: __ZNSt3__19allocatorI8TriangleE8allocateB7v160006Em, symObjAddr: 0x4868, symBinAddr: 0x10000C310, symSize: 0x5C }
  - { offsetInCU: 0x19AFB, offset: 0x24DCB, size: 0x8, addend: 0x0, symName: __ZNSt3__117__compressed_pairIP8TriangleNS_9allocatorIS1_EEE5firstB7v160006Ev, symObjAddr: 0x48C4, symBinAddr: 0x10000C36C, symSize: 0x24 }
  - { offsetInCU: 0x19B20, offset: 0x24DF0, size: 0x8, addend: 0x0, symName: __ZNSt3__122__compressed_pair_elemIP8TriangleLi0ELb0EE5__getB7v160006Ev, symObjAddr: 0x48E8, symBinAddr: 0x10000C390, symSize: 0x14 }
  - { offsetInCU: 0x19B5E, offset: 0x24E2E, size: 0x8, addend: 0x0, symName: __ZNSt3__16vectorI8TriangleNS_9allocatorIS1_EEE21_ConstructTransactionC1B7v160006ERS4_m, symObjAddr: 0x48FC, symBinAddr: 0x10000C3A4, symSize: 0x3C }
  - { offsetInCU: 0x19BA5, offset: 0x24E75, size: 0x8, addend: 0x0, symName: __ZNSt3__16vectorI8TriangleNS_9allocatorIS1_EEE21_ConstructTransactionD1B7v160006Ev, symObjAddr: 0x4A2C, symBinAddr: 0x10000C4D4, symSize: 0x2C }
  - { offsetInCU: 0x19BCE, offset: 0x24E9E, size: 0x8, addend: 0x0, symName: __ZNSt3__16vectorI8TriangleNS_9allocatorIS1_EEE21_ConstructTransactionC2B7v160006ERS4_m, symObjAddr: 0x4A58, symBinAddr: 0x10000C500, symSize: 0x4C }
  - { offsetInCU: 0x19C15, offset: 0x24EE5, size: 0x8, addend: 0x0, symName: __ZNSt3__129_AllocatorDestroyRangeReverseINS_9allocatorI8TriangleEEPS2_EC1B7v160006ERS3_RS4_S7_, symObjAddr: 0x4AF0, symBinAddr: 0x10000C598, symSize: 0x44 }
  - { offsetInCU: 0x19C6B, offset: 0x24F3B, size: 0x8, addend: 0x0, symName: __ZNSt3__116allocator_traitsINS_9allocatorI8TriangleEEE9constructB7v160006IS2_JRS2_EvEEvRS3_PT_DpOT0_, symObjAddr: 0x4B34, symBinAddr: 0x10000C5DC, symSize: 0x34 }
  - { offsetInCU: 0x19CC4, offset: 0x24F94, size: 0x8, addend: 0x0, symName: __ZNSt3__128__exception_guard_exceptionsINS_29_AllocatorDestroyRangeReverseINS_9allocatorI8TriangleEEPS3_EEE10__completeB7v160006Ev, symObjAddr: 0x4B68, symBinAddr: 0x10000C610, symSize: 0x1C }
  - { offsetInCU: 0x19CE9, offset: 0x24FB9, size: 0x8, addend: 0x0, symName: __ZNSt3__128__exception_guard_exceptionsINS_29_AllocatorDestroyRangeReverseINS_9allocatorI8TriangleEEPS3_EEED1B7v160006Ev, symObjAddr: 0x4B84, symBinAddr: 0x10000C62C, symSize: 0x2C }
  - { offsetInCU: 0x19D12, offset: 0x24FE2, size: 0x8, addend: 0x0, symName: __ZNSt3__128__exception_guard_exceptionsINS_29_AllocatorDestroyRangeReverseINS_9allocatorI8TriangleEEPS3_EEEC1B7v160006ES6_, symObjAddr: 0x4BB0, symBinAddr: 0x10000C658, symSize: 0x34 }
  - { offsetInCU: 0x19D4A, offset: 0x2501A, size: 0x8, addend: 0x0, symName: __ZNSt3__128__exception_guard_exceptionsINS_29_AllocatorDestroyRangeReverseINS_9allocatorI8TriangleEEPS3_EEEC2B7v160006ES6_, symObjAddr: 0x4BE4, symBinAddr: 0x10000C68C, symSize: 0x30 }
  - { offsetInCU: 0x19D82, offset: 0x25052, size: 0x8, addend: 0x0, symName: __ZNSt3__129_AllocatorDestroyRangeReverseINS_9allocatorI8TriangleEEPS2_EC2B7v160006ERS3_RS4_S7_, symObjAddr: 0x4C14, symBinAddr: 0x10000C6BC, symSize: 0x38 }
  - { offsetInCU: 0x19DD8, offset: 0x250A8, size: 0x8, addend: 0x0, symName: __ZNSt3__19allocatorI8TriangleE9constructB7v160006IS1_JRS1_EEEvPT_DpOT0_, symObjAddr: 0x4C4C, symBinAddr: 0x10000C6F4, symSize: 0x30 }
  - { offsetInCU: 0x19E2F, offset: 0x250FF, size: 0x8, addend: 0x0, symName: __ZNSt3__128__exception_guard_exceptionsINS_29_AllocatorDestroyRangeReverseINS_9allocatorI8TriangleEEPS3_EEED2B7v160006Ev, symObjAddr: 0x4C7C, symBinAddr: 0x10000C724, symSize: 0x50 }
  - { offsetInCU: 0x19E58, offset: 0x25128, size: 0x8, addend: 0x0, symName: __ZNKSt3__129_AllocatorDestroyRangeReverseINS_9allocatorI8TriangleEEPS2_EclB7v160006Ev, symObjAddr: 0x4CCC, symBinAddr: 0x10000C774, symSize: 0x68 }
  - { offsetInCU: 0x19E7D, offset: 0x2514D, size: 0x8, addend: 0x0, symName: __ZNSt3__116reverse_iteratorIP8TriangleEC1B7v160006ES2_, symObjAddr: 0x4DA4, symBinAddr: 0x10000C84C, symSize: 0x34 }
  - { offsetInCU: 0x19EB4, offset: 0x25184, size: 0x8, addend: 0x0, symName: __ZNSt3__116reverse_iteratorIP8TriangleEppB7v160006Ev, symObjAddr: 0x4E44, symBinAddr: 0x10000C8EC, symSize: 0x20 }
  - { offsetInCU: 0x19ED9, offset: 0x251A9, size: 0x8, addend: 0x0, symName: __ZNKSt3__116reverse_iteratorIP8TriangleE4baseB7v160006Ev, symObjAddr: 0x4E64, symBinAddr: 0x10000C90C, symSize: 0x18 }
  - { offsetInCU: 0x19F03, offset: 0x251D3, size: 0x8, addend: 0x0, symName: __ZNSt3__119__to_address_helperINS_16reverse_iteratorIP8TriangleEEvE6__callB7v160006ERKS4_, symObjAddr: 0x4E7C, symBinAddr: 0x10000C924, symSize: 0x38 }
  - { offsetInCU: 0x19F25, offset: 0x251F5, size: 0x8, addend: 0x0, symName: __ZNKSt3__116reverse_iteratorIP8TriangleEptB7v160006Ev, symObjAddr: 0x4EB4, symBinAddr: 0x10000C95C, symSize: 0x24 }
  - { offsetInCU: 0x19F4A, offset: 0x2521A, size: 0x8, addend: 0x0, symName: __ZNKSt3__116reverse_iteratorIP8TriangleEdeB7v160006Ev, symObjAddr: 0x4ED8, symBinAddr: 0x10000C980, symSize: 0x28 }
  - { offsetInCU: 0x19F7D, offset: 0x2524D, size: 0x8, addend: 0x0, symName: __ZNSt3__116reverse_iteratorIP8TriangleEC2B7v160006ES2_, symObjAddr: 0x4F00, symBinAddr: 0x10000C9A8, symSize: 0x28 }
  - { offsetInCU: 0x19FB4, offset: 0x25284, size: 0x8, addend: 0x0, symName: __ZNSt3__16vectorI8TriangleNS_9allocatorIS1_EEE21_ConstructTransactionD2B7v160006Ev, symObjAddr: 0x4F28, symBinAddr: 0x10000C9D0, symSize: 0x20 }
  - { offsetInCU: 0x19FDD, offset: 0x252AD, size: 0x8, addend: 0x0, symName: __ZNSt3__128__exception_guard_exceptionsINS_6vectorI8TriangleNS_9allocatorIS2_EEE16__destroy_vectorEED2B7v160006Ev, symObjAddr: 0x4F48, symBinAddr: 0x10000C9F0, symSize: 0x50 }
  - { offsetInCU: 0x1A006, offset: 0x252D6, size: 0x8, addend: 0x0, symName: __ZNKSt3__112basic_stringIcNS_11char_traitsIcEENS_9allocatorIcEEE4dataB7v160006Ev, symObjAddr: 0x5074, symBinAddr: 0x10000CB1C, symSize: 0x28 }
  - { offsetInCU: 0x1A02B, offset: 0x252FB, size: 0x8, addend: 0x0, symName: __ZNSt3__111char_traitsIcE4findEPKcmRS2_, symObjAddr: 0x50D0, symBinAddr: 0x10000CB44, symSize: 0x70 }
  - { offsetInCU: 0x1A069, offset: 0x25339, size: 0x8, addend: 0x0, symName: __ZNKSt3__112basic_stringIcNS_11char_traitsIcEENS_9allocatorIcEEE13__get_pointerB7v160006Ev, symObjAddr: 0x5188, symBinAddr: 0x10000CBFC, symSize: 0x54 }
  - { offsetInCU: 0x1A08E, offset: 0x2535E, size: 0x8, addend: 0x0, symName: __ZNKSt3__112basic_stringIcNS_11char_traitsIcEENS_9allocatorIcEEE18__get_long_pointerB7v160006Ev, symObjAddr: 0x51DC, symBinAddr: 0x10000CC50, symSize: 0x28 }
  - { offsetInCU: 0x1A0B3, offset: 0x25383, size: 0x8, addend: 0x0, symName: __ZNKSt3__112basic_stringIcNS_11char_traitsIcEENS_9allocatorIcEEE19__get_short_pointerB7v160006Ev, symObjAddr: 0x5204, symBinAddr: 0x10000CC78, symSize: 0x28 }
  - { offsetInCU: 0x1A0D8, offset: 0x253A8, size: 0x8, addend: 0x0, symName: __ZNSt3__114pointer_traitsIPKcE10pointer_toB7v160006ERS1_, symObjAddr: 0x522C, symBinAddr: 0x10000CCA0, symSize: 0x14 }
  - { offsetInCU: 0x1A0FB, offset: 0x253CB, size: 0x8, addend: 0x0, symName: __ZNSt3__19allocatorIcEC1B7v160006Ev, symObjAddr: 0x5340, symBinAddr: 0x10000CD90, symSize: 0x2C }
  - { offsetInCU: 0x1A147, offset: 0x25417, size: 0x8, addend: 0x0, symName: __ZNSt3__19basic_iosIcNS_11char_traitsIcEEEC2B7v160006Ev, symObjAddr: 0x5C30, symBinAddr: 0x10000CDBC, symSize: 0x44 }
  - { offsetInCU: 0x1A170, offset: 0x25440, size: 0x8, addend: 0x0, symName: __ZNSt3__113basic_istreamIcNS_11char_traitsIcEEEC2B7v160006EPNS_15basic_streambufIcS2_EE, symObjAddr: 0x5C74, symBinAddr: 0x10000CE00, symSize: 0x64 }
  - { offsetInCU: 0x1A1B3, offset: 0x25483, size: 0x8, addend: 0x0, symName: __ZNSt3__113basic_filebufIcNS_11char_traitsIcEEE4openERKNS_12basic_stringIcS2_NS_9allocatorIcEEEEj, symObjAddr: 0x5CD8, symBinAddr: 0x10000CE64, symSize: 0x44 }
  - { offsetInCU: 0x1A1F6, offset: 0x254C6, size: 0x8, addend: 0x0, symName: __ZNSt3__18ios_baseC2B7v160006Ev, symObjAddr: 0x5D1C, symBinAddr: 0x10000CEA8, symSize: 0x24 }
  - { offsetInCU: 0x1A21F, offset: 0x254EF, size: 0x8, addend: 0x0, symName: __ZNSt3__19basic_iosIcNS_11char_traitsIcEEE4initB7v160006EPNS_15basic_streambufIcS2_EE, symObjAddr: 0x5D40, symBinAddr: 0x10000CECC, symSize: 0x44 }
  - { offsetInCU: 0x1A255, offset: 0x25525, size: 0x8, addend: 0x0, symName: __ZNKSt3__112basic_stringIcNS_11char_traitsIcEENS_9allocatorIcEEE5c_strB7v160006Ev, symObjAddr: 0x5D84, symBinAddr: 0x10000CF10, symSize: 0x24 }
  - { offsetInCU: 0x1A27A, offset: 0x2554A, size: 0x8, addend: 0x0, symName: __ZNKSt3__113basic_filebufIcNS_11char_traitsIcEEE7is_openEv, symObjAddr: 0x5DA8, symBinAddr: 0x10000CF34, symSize: 0x24 }
  - { offsetInCU: 0x1A2A1, offset: 0x25571, size: 0x8, addend: 0x0, symName: __ZNSt3__16vectorIN3glm5tvec3IfLNS1_9precisionE0EEENS_9allocatorIS4_EEEC2B7v160006Ev, symObjAddr: 0x5DCC, symBinAddr: 0x10000CF58, symSize: 0x58 }
  - { offsetInCU: 0x1A2CA, offset: 0x2559A, size: 0x8, addend: 0x0, symName: __ZNSt3__117__compressed_pairIPN3glm5tvec3IfLNS1_9precisionE0EEENS_9allocatorIS4_EEEC1B7v160006IDnNS_18__default_init_tagEEEOT_OT0_, symObjAddr: 0x5E24, symBinAddr: 0x10000CFB0, symSize: 0x3C }
  - { offsetInCU: 0x1A321, offset: 0x255F1, size: 0x8, addend: 0x0, symName: __ZNSt3__117__compressed_pairIPN3glm5tvec3IfLNS1_9precisionE0EEENS_9allocatorIS4_EEEC2B7v160006IDnNS_18__default_init_tagEEEOT_OT0_, symObjAddr: 0x5E70, symBinAddr: 0x10000CFFC, symSize: 0x40 }
  - { offsetInCU: 0x1A378, offset: 0x25648, size: 0x8, addend: 0x0, symName: __ZNSt3__122__compressed_pair_elemIPN3glm5tvec3IfLNS1_9precisionE0EEELi0ELb0EEC2B7v160006IDnvEEOT_, symObjAddr: 0x5EB0, symBinAddr: 0x10000D03C, symSize: 0x1C }
  - { offsetInCU: 0x1A3BA, offset: 0x2568A, size: 0x8, addend: 0x0, symName: __ZNSt3__122__compressed_pair_elemINS_9allocatorIN3glm5tvec3IfLNS2_9precisionE0EEEEELi1ELb1EEC2B7v160006ENS_18__default_init_tagE, symObjAddr: 0x5ECC, symBinAddr: 0x10000D058, symSize: 0x2C }
  - { offsetInCU: 0x1A3EE, offset: 0x256BE, size: 0x8, addend: 0x0, symName: __ZNSt3__19allocatorIN3glm5tvec3IfLNS1_9precisionE0EEEEC2B7v160006Ev, symObjAddr: 0x5EF8, symBinAddr: 0x10000D084, symSize: 0x2C }
  - { offsetInCU: 0x1A417, offset: 0x256E7, size: 0x8, addend: 0x0, symName: __ZNSt3__116__non_trivial_ifILb1ENS_9allocatorIN3glm5tvec3IfLNS2_9precisionE0EEEEEEC2B7v160006Ev, symObjAddr: 0x5F24, symBinAddr: 0x10000D0B0, symSize: 0x14 }
  - { offsetInCU: 0x1A440, offset: 0x25710, size: 0x8, addend: 0x0, symName: __ZNSt3__16vectorIN3glm5tvec3IfLNS1_9precisionE0EEENS_9allocatorIS4_EEED2B7v160006Ev, symObjAddr: 0x5F38, symBinAddr: 0x10000D0C4, symSize: 0x44 }
  - { offsetInCU: 0x1A469, offset: 0x25739, size: 0x8, addend: 0x0, symName: __ZNSt3__16vectorIN3glm5tvec3IfLNS1_9precisionE0EEENS_9allocatorIS4_EEE16__destroy_vectorC1ERS7_, symObjAddr: 0x5F7C, symBinAddr: 0x10000D108, symSize: 0x34 }
  - { offsetInCU: 0x1A4A1, offset: 0x25771, size: 0x8, addend: 0x0, symName: __ZNSt3__16vectorIN3glm5tvec3IfLNS1_9precisionE0EEENS_9allocatorIS4_EEE16__destroy_vectorclB7v160006Ev, symObjAddr: 0x5FB0, symBinAddr: 0x10000D13C, symSize: 0x9C }
  - { offsetInCU: 0x1A4C6, offset: 0x25796, size: 0x8, addend: 0x0, symName: __ZNSt3__16vectorIN3glm5tvec3IfLNS1_9precisionE0EEENS_9allocatorIS4_EEE16__destroy_vectorC2ERS7_, symObjAddr: 0x604C, symBinAddr: 0x10000D1D8, symSize: 0x20 }
  - { offsetInCU: 0x1A4FE, offset: 0x257CE, size: 0x8, addend: 0x0, symName: __ZNKSt3__16vectorIN3glm5tvec3IfLNS1_9precisionE0EEENS_9allocatorIS4_EEE17__annotate_deleteB7v160006Ev, symObjAddr: 0x606C, symBinAddr: 0x10000D1F8, symSize: 0xD4 }
  - { offsetInCU: 0x1A523, offset: 0x257F3, size: 0x8, addend: 0x0, symName: __ZNSt3__16vectorIN3glm5tvec3IfLNS1_9precisionE0EEENS_9allocatorIS4_EEE7__clearB7v160006Ev, symObjAddr: 0x6150, symBinAddr: 0x10000D2DC, symSize: 0x28 }
  - { offsetInCU: 0x1A548, offset: 0x25818, size: 0x8, addend: 0x0, symName: __ZNSt3__116allocator_traitsINS_9allocatorIN3glm5tvec3IfLNS2_9precisionE0EEEEEE10deallocateB7v160006ERS6_PS5_m, symObjAddr: 0x6178, symBinAddr: 0x10000D304, symSize: 0x34 }
  - { offsetInCU: 0x1A589, offset: 0x25859, size: 0x8, addend: 0x0, symName: __ZNSt3__16vectorIN3glm5tvec3IfLNS1_9precisionE0EEENS_9allocatorIS4_EEE7__allocB7v160006Ev, symObjAddr: 0x61AC, symBinAddr: 0x10000D338, symSize: 0x28 }
  - { offsetInCU: 0x1A5AE, offset: 0x2587E, size: 0x8, addend: 0x0, symName: __ZNKSt3__16vectorIN3glm5tvec3IfLNS1_9precisionE0EEENS_9allocatorIS4_EEE8capacityB7v160006Ev, symObjAddr: 0x61D4, symBinAddr: 0x10000D360, symSize: 0x40 }
  - { offsetInCU: 0x1A5D3, offset: 0x258A3, size: 0x8, addend: 0x0, symName: __ZNKSt3__16vectorIN3glm5tvec3IfLNS1_9precisionE0EEENS_9allocatorIS4_EEE31__annotate_contiguous_containerB7v160006EPKvS9_S9_S9_, symObjAddr: 0x6214, symBinAddr: 0x10000D3A0, symSize: 0x20 }
  - { offsetInCU: 0x1A628, offset: 0x258F8, size: 0x8, addend: 0x0, symName: __ZNKSt3__16vectorIN3glm5tvec3IfLNS1_9precisionE0EEENS_9allocatorIS4_EEE4dataB7v160006Ev, symObjAddr: 0x6234, symBinAddr: 0x10000D3C0, symSize: 0x28 }
  - { offsetInCU: 0x1A64D, offset: 0x2591D, size: 0x8, addend: 0x0, symName: __ZNSt3__16vectorIN3glm5tvec3IfLNS1_9precisionE0EEENS_9allocatorIS4_EEE22__base_destruct_at_endB7v160006EPS4_, symObjAddr: 0x6270, symBinAddr: 0x10000D3FC, symSize: 0x8C }
  - { offsetInCU: 0x1A690, offset: 0x25960, size: 0x8, addend: 0x0, symName: __ZNSt3__116allocator_traitsINS_9allocatorIN3glm5tvec3IfLNS2_9precisionE0EEEEEE7destroyB7v160006IS5_vEEvRS6_PT_, symObjAddr: 0x62FC, symBinAddr: 0x10000D488, symSize: 0x2C }
  - { offsetInCU: 0x1A6CD, offset: 0x2599D, size: 0x8, addend: 0x0, symName: __ZNSt3__19allocatorIN3glm5tvec3IfLNS1_9precisionE0EEEE7destroyB7v160006EPS4_, symObjAddr: 0x6328, symBinAddr: 0x10000D4B4, symSize: 0x14 }
  - { offsetInCU: 0x1A700, offset: 0x259D0, size: 0x8, addend: 0x0, symName: __ZNSt3__19allocatorIN3glm5tvec3IfLNS1_9precisionE0EEEE10deallocateB7v160006EPS4_m, symObjAddr: 0x633C, symBinAddr: 0x10000D4C8, symSize: 0x44 }
  - { offsetInCU: 0x1A741, offset: 0x25A11, size: 0x8, addend: 0x0, symName: __ZNSt3__117__compressed_pairIPN3glm5tvec3IfLNS1_9precisionE0EEENS_9allocatorIS4_EEE6secondB7v160006Ev, symObjAddr: 0x6380, symBinAddr: 0x10000D50C, symSize: 0x24 }
  - { offsetInCU: 0x1A766, offset: 0x25A36, size: 0x8, addend: 0x0, symName: __ZNSt3__122__compressed_pair_elemINS_9allocatorIN3glm5tvec3IfLNS2_9precisionE0EEEEELi1ELb1EE5__getB7v160006Ev, symObjAddr: 0x63A4, symBinAddr: 0x10000D530, symSize: 0x14 }
  - { offsetInCU: 0x1A78B, offset: 0x25A5B, size: 0x8, addend: 0x0, symName: __ZNKSt3__16vectorIN3glm5tvec3IfLNS1_9precisionE0EEENS_9allocatorIS4_EEE9__end_capB7v160006Ev, symObjAddr: 0x63B8, symBinAddr: 0x10000D544, symSize: 0x28 }
  - { offsetInCU: 0x1A7B0, offset: 0x25A80, size: 0x8, addend: 0x0, symName: __ZNKSt3__117__compressed_pairIPN3glm5tvec3IfLNS1_9precisionE0EEENS_9allocatorIS4_EEE5firstB7v160006Ev, symObjAddr: 0x63E0, symBinAddr: 0x10000D56C, symSize: 0x24 }
  - { offsetInCU: 0x1A7D5, offset: 0x25AA5, size: 0x8, addend: 0x0, symName: __ZNKSt3__122__compressed_pair_elemIPN3glm5tvec3IfLNS1_9precisionE0EEELi0ELb0EE5__getB7v160006Ev, symObjAddr: 0x6404, symBinAddr: 0x10000D590, symSize: 0x14 }
  - { offsetInCU: 0x1A7FA, offset: 0x25ACA, size: 0x8, addend: 0x0, symName: __ZNKSt3__19basic_iosIcNS_11char_traitsIcEEE4failB7v160006Ev, symObjAddr: 0x6418, symBinAddr: 0x10000D5A4, symSize: 0x28 }
  - { offsetInCU: 0x1A81F, offset: 0x25AEF, size: 0x8, addend: 0x0, symName: __ZNKSt3__18ios_base4failB7v160006Ev, symObjAddr: 0x6440, symBinAddr: 0x10000D5CC, symSize: 0x28 }
  - { offsetInCU: 0x1A846, offset: 0x25B16, size: 0x8, addend: 0x0, symName: __ZNSt3__114basic_iostreamIcNS_11char_traitsIcEEEC2B7v160006EPNS_15basic_streambufIcS2_EE, symObjAddr: 0x6468, symBinAddr: 0x10000D5F4, symSize: 0xAC }
  - { offsetInCU: 0x1A88A, offset: 0x25B5A, size: 0x8, addend: 0x0, symName: __ZNSt3__115basic_stringbufIcNS_11char_traitsIcEENS_9allocatorIcEEEC1B7v160006ERKNS_12basic_stringIcS2_S4_EEj, symObjAddr: 0x6514, symBinAddr: 0x10000D6A0, symSize: 0x3C }
  - { offsetInCU: 0x1A8CF, offset: 0x25B9F, size: 0x8, addend: 0x0, symName: __ZNSt3__113basic_ostreamIcNS_11char_traitsIcEEEC2B7v160006Ev, symObjAddr: 0x6550, symBinAddr: 0x10000D6DC, symSize: 0x34 }
  - { offsetInCU: 0x1A904, offset: 0x25BD4, size: 0x8, addend: 0x0, symName: __ZNSt3__115basic_stringbufIcNS_11char_traitsIcEENS_9allocatorIcEEEC2B7v160006ERKNS_12basic_stringIcS2_S4_EEj, symObjAddr: 0x6584, symBinAddr: 0x10000D710, symSize: 0xB4 }
  - { offsetInCU: 0x1A949, offset: 0x25C19, size: 0x8, addend: 0x0, symName: __ZNKSt3__112basic_stringIcNS_11char_traitsIcEENS_9allocatorIcEEE13get_allocatorB7v160006Ev, symObjAddr: 0x6638, symBinAddr: 0x10000D7C4, symSize: 0x24 }
  - { offsetInCU: 0x1A96E, offset: 0x25C3E, size: 0x8, addend: 0x0, symName: __ZNSt3__112basic_stringIcNS_11char_traitsIcEENS_9allocatorIcEEEC1B7v160006ERKS4_, symObjAddr: 0x665C, symBinAddr: 0x10000D7E8, symSize: 0x34 }
  - { offsetInCU: 0x1A9A6, offset: 0x25C76, size: 0x8, addend: 0x0, symName: __ZNKSt3__112basic_stringIcNS_11char_traitsIcEENS_9allocatorIcEEE7__allocB7v160006Ev, symObjAddr: 0x6690, symBinAddr: 0x10000D81C, symSize: 0x24 }
  - { offsetInCU: 0x1A9CB, offset: 0x25C9B, size: 0x8, addend: 0x0, symName: __ZNKSt3__117__compressed_pairINS_12basic_stringIcNS_11char_traitsIcEENS_9allocatorIcEEE5__repES5_E6secondB7v160006Ev, symObjAddr: 0x66B4, symBinAddr: 0x10000D840, symSize: 0x24 }
  - { offsetInCU: 0x1A9F0, offset: 0x25CC0, size: 0x8, addend: 0x0, symName: __ZNKSt3__122__compressed_pair_elemINS_9allocatorIcEELi1ELb1EE5__getB7v160006Ev, symObjAddr: 0x66D8, symBinAddr: 0x10000D864, symSize: 0x14 }
  - { offsetInCU: 0x1AA15, offset: 0x25CE5, size: 0x8, addend: 0x0, symName: __ZNSt3__112basic_stringIcNS_11char_traitsIcEENS_9allocatorIcEEEC2B7v160006ERKS4_, symObjAddr: 0x66EC, symBinAddr: 0x10000D878, symSize: 0x50 }
  - { offsetInCU: 0x1AA4D, offset: 0x25D1D, size: 0x8, addend: 0x0, symName: __ZNSt3__117__compressed_pairINS_12basic_stringIcNS_11char_traitsIcEENS_9allocatorIcEEE5__repES5_EC1B7v160006INS_18__default_init_tagERKS5_EEOT_OT0_, symObjAddr: 0x673C, symBinAddr: 0x10000D8C8, symSize: 0x3C }
  - { offsetInCU: 0x1AAA4, offset: 0x25D74, size: 0x8, addend: 0x0, symName: __ZNSt3__117__compressed_pairINS_12basic_stringIcNS_11char_traitsIcEENS_9allocatorIcEEE5__repES5_EC2B7v160006INS_18__default_init_tagERKS5_EEOT_OT0_, symObjAddr: 0x6778, symBinAddr: 0x10000D904, symSize: 0x40 }
  - { offsetInCU: 0x1AAFB, offset: 0x25DCB, size: 0x8, addend: 0x0, symName: __ZNSt3__122__compressed_pair_elemINS_9allocatorIcEELi1ELb1EEC2B7v160006IRKS2_vEEOT_, symObjAddr: 0x67B8, symBinAddr: 0x10000D944, symSize: 0x18 }
  - { offsetInCU: 0x1AB5B, offset: 0x25E2B, size: 0x8, addend: 0x0, symName: __ZNKSt3__113basic_istreamIcNS_11char_traitsIcEEE6sentrycvbB7v160006Ev, symObjAddr: 0x67D0, symBinAddr: 0x10000D95C, symSize: 0x1C }
  - { offsetInCU: 0x1AB80, offset: 0x25E50, size: 0x8, addend: 0x0, symName: __ZNSt3__112basic_stringIcNS_11char_traitsIcEENS_9allocatorIcEEE5clearB7v160006Ev, symObjAddr: 0x67EC, symBinAddr: 0x10000D978, symSize: 0x88 }
  - { offsetInCU: 0x1ABA7, offset: 0x25E77, size: 0x8, addend: 0x0, symName: __ZNKSt3__112basic_stringIcNS_11char_traitsIcEENS_9allocatorIcEEE8max_sizeB7v160006Ev, symObjAddr: 0x6874, symBinAddr: 0x10000DA00, symSize: 0xAC }
  - { offsetInCU: 0x1ABF9, offset: 0x25EC9, size: 0x8, addend: 0x0, symName: __ZNSt3__115basic_streambufIcNS_11char_traitsIcEEE5sgetcB7v160006Ev, symObjAddr: 0x6920, symBinAddr: 0x10000DAAC, symSize: 0x70 }
  - { offsetInCU: 0x1AC1E, offset: 0x25EEE, size: 0x8, addend: 0x0, symName: __ZNSt3__111char_traitsIcE12to_char_typeEi, symObjAddr: 0x6990, symBinAddr: 0x10000DB1C, symSize: 0x18 }
  - { offsetInCU: 0x1AC41, offset: 0x25F11, size: 0x8, addend: 0x0, symName: __ZNKSt3__15ctypeIcE2isB7v160006Ejc, symObjAddr: 0x69A8, symBinAddr: 0x10000DB34, symSize: 0x7C }
  - { offsetInCU: 0x1AC84, offset: 0x25F54, size: 0x8, addend: 0x0, symName: __ZNSt3__115basic_streambufIcNS_11char_traitsIcEEE6sbumpcB7v160006Ev, symObjAddr: 0x6A24, symBinAddr: 0x10000DBB0, symSize: 0x78 }
  - { offsetInCU: 0x1ACA9, offset: 0x25F79, size: 0x8, addend: 0x0, symName: __ZNSt3__18ios_base18__setstate_nothrowB7v160006Ej, symObjAddr: 0x6A9C, symBinAddr: 0x10000DC28, symSize: 0x64 }
  - { offsetInCU: 0x1ACDD, offset: 0x25FAD, size: 0x8, addend: 0x0, symName: __ZNKSt3__19basic_iosIcNS_11char_traitsIcEEE10exceptionsB7v160006Ev, symObjAddr: 0x6B00, symBinAddr: 0x10000DC8C, symSize: 0x24 }
  - { offsetInCU: 0x1AD02, offset: 0x25FD2, size: 0x8, addend: 0x0, symName: __ZNSt3__112basic_stringIcNS_11char_traitsIcEENS_9allocatorIcEEE15__set_long_sizeB7v160006Em, symObjAddr: 0x6B34, symBinAddr: 0x10000DCC0, symSize: 0x38 }
  - { offsetInCU: 0x1AD40, offset: 0x26010, size: 0x8, addend: 0x0, symName: __ZNSt3__116allocator_traitsINS_9allocatorIcEEE8max_sizeB7v160006IS2_vEEmRKS2_, symObjAddr: 0x6B6C, symBinAddr: 0x10000DCF8, symSize: 0x24 }
  - { offsetInCU: 0x1AD6E, offset: 0x2603E, size: 0x8, addend: 0x0, symName: __ZNSt3__114numeric_limitsImE3maxB7v160006Ev, symObjAddr: 0x6B90, symBinAddr: 0x10000DD1C, symSize: 0x14 }
  - { offsetInCU: 0x1AD82, offset: 0x26052, size: 0x8, addend: 0x0, symName: __ZNKSt3__19allocatorIcE8max_sizeB7v160006Ev, symObjAddr: 0x6BA4, symBinAddr: 0x10000DD30, symSize: 0x14 }
  - { offsetInCU: 0x1ADA7, offset: 0x26077, size: 0x8, addend: 0x0, symName: __ZNSt3__123__libcpp_numeric_limitsImLb1EE3maxB7v160006Ev, symObjAddr: 0x6BB8, symBinAddr: 0x10000DD44, symSize: 0x8 }
  - { offsetInCU: 0x1ADBB, offset: 0x2608B, size: 0x8, addend: 0x0, symName: __ZNSt3__111char_traitsIcE11to_int_typeEc, symObjAddr: 0x6BC0, symBinAddr: 0x10000DD4C, symSize: 0x14 }
  - { offsetInCU: 0x1ADDD, offset: 0x260AD, size: 0x8, addend: 0x0, symName: __Z7isasciii, symObjAddr: 0x6BD4, symBinAddr: 0x10000DD60, symSize: 0x24 }
  - { offsetInCU: 0x1AE0A, offset: 0x260DA, size: 0x8, addend: 0x0, symName: __ZNKSt3__18ios_base10exceptionsB7v160006Ev, symObjAddr: 0x6BF8, symBinAddr: 0x10000DD84, symSize: 0x18 }
  - { offsetInCU: 0x1AE31, offset: 0x26101, size: 0x8, addend: 0x0, symName: __ZNSt3__16vectorI6VertexNS_9allocatorIS1_EEE22__construct_one_at_endB7v160006IJRKS1_EEEvDpOT_, symObjAddr: 0x6C10, symBinAddr: 0x10000DD9C, symSize: 0x90 }
  - { offsetInCU: 0x1AE81, offset: 0x26151, size: 0x8, addend: 0x0, symName: __ZNSt3__16vectorI6VertexNS_9allocatorIS1_EEE21__push_back_slow_pathIRKS1_EEvOT_, symObjAddr: 0x6CA0, symBinAddr: 0x10000DE2C, symSize: 0xD8 }
  - { offsetInCU: 0x1AEDE, offset: 0x261AE, size: 0x8, addend: 0x0, symName: __ZNSt3__116allocator_traitsINS_9allocatorI6VertexEEE9constructB7v160006IS2_JRKS2_EvEEvRS3_PT_DpOT0_, symObjAddr: 0x6D78, symBinAddr: 0x10000DF04, symSize: 0x34 }
  - { offsetInCU: 0x1AF37, offset: 0x26207, size: 0x8, addend: 0x0, symName: __ZNSt3__19allocatorI6VertexE9constructB7v160006IS1_JRKS1_EEEvPT_DpOT0_, symObjAddr: 0x6DAC, symBinAddr: 0x10000DF38, symSize: 0x30 }
  - { offsetInCU: 0x1AF8E, offset: 0x2625E, size: 0x8, addend: 0x0, symName: __ZNKSt3__16vectorI6VertexNS_9allocatorIS1_EEE11__recommendB7v160006Em, symObjAddr: 0x6DDC, symBinAddr: 0x10000DF68, symSize: 0xB4 }
  - { offsetInCU: 0x1AFE2, offset: 0x262B2, size: 0x8, addend: 0x0, symName: __ZNSt3__114__split_bufferI6VertexRNS_9allocatorIS1_EEEC1EmmS4_, symObjAddr: 0x6E90, symBinAddr: 0x10000E01C, symSize: 0x44 }
  - { offsetInCU: 0x1B037, offset: 0x26307, size: 0x8, addend: 0x0, symName: __ZNSt3__114__split_bufferI6VertexRNS_9allocatorIS1_EEED1Ev, symObjAddr: 0x6FEC, symBinAddr: 0x10000E178, symSize: 0x2C }
  - { offsetInCU: 0x1B062, offset: 0x26332, size: 0x8, addend: 0x0, symName: __ZNSt3__114__split_bufferI6VertexRNS_9allocatorIS1_EEEC2EmmS4_, symObjAddr: 0x7098, symBinAddr: 0x10000E224, symSize: 0xE0 }
  - { offsetInCU: 0x1B0D5, offset: 0x263A5, size: 0x8, addend: 0x0, symName: __ZNSt3__117__compressed_pairIP6VertexRNS_9allocatorIS1_EEEC1B7v160006IDnS5_EEOT_OT0_, symObjAddr: 0x7178, symBinAddr: 0x10000E304, symSize: 0x3C }
  - { offsetInCU: 0x1B12C, offset: 0x263FC, size: 0x8, addend: 0x0, symName: __ZNSt3__114__split_bufferI6VertexRNS_9allocatorIS1_EEE7__allocB7v160006Ev, symObjAddr: 0x71B4, symBinAddr: 0x10000E340, symSize: 0x28 }
  - { offsetInCU: 0x1B151, offset: 0x26421, size: 0x8, addend: 0x0, symName: __ZNSt3__114__split_bufferI6VertexRNS_9allocatorIS1_EEE9__end_capB7v160006Ev, symObjAddr: 0x71DC, symBinAddr: 0x10000E368, symSize: 0x28 }
  - { offsetInCU: 0x1B176, offset: 0x26446, size: 0x8, addend: 0x0, symName: __ZNSt3__117__compressed_pairIP6VertexRNS_9allocatorIS1_EEEC2B7v160006IDnS5_EEOT_OT0_, symObjAddr: 0x7204, symBinAddr: 0x10000E390, symSize: 0x48 }
  - { offsetInCU: 0x1B1CD, offset: 0x2649D, size: 0x8, addend: 0x0, symName: __ZNSt3__122__compressed_pair_elemIRNS_9allocatorI6VertexEELi1ELb0EEC2B7v160006IS4_vEEOT_, symObjAddr: 0x724C, symBinAddr: 0x10000E3D8, symSize: 0x20 }
  - { offsetInCU: 0x1B20F, offset: 0x264DF, size: 0x8, addend: 0x0, symName: __ZNSt3__117__compressed_pairIP6VertexRNS_9allocatorIS1_EEE6secondB7v160006Ev, symObjAddr: 0x726C, symBinAddr: 0x10000E3F8, symSize: 0x28 }
  - { offsetInCU: 0x1B234, offset: 0x26504, size: 0x8, addend: 0x0, symName: __ZNSt3__122__compressed_pair_elemIRNS_9allocatorI6VertexEELi1ELb0EE5__getB7v160006Ev, symObjAddr: 0x7294, symBinAddr: 0x10000E420, symSize: 0x18 }
  - { offsetInCU: 0x1B259, offset: 0x26529, size: 0x8, addend: 0x0, symName: __ZNSt3__117__compressed_pairIP6VertexRNS_9allocatorIS1_EEE5firstB7v160006Ev, symObjAddr: 0x72AC, symBinAddr: 0x10000E438, symSize: 0x24 }
  - { offsetInCU: 0x1B2A1, offset: 0x26571, size: 0x8, addend: 0x0, symName: __ZNKSt3__111__move_loopINS_17_ClassicAlgPolicyEEclB7v160006INS_16reverse_iteratorIP6VertexEES7_S7_EENS_4pairIT_T1_EES9_T0_SA_, symObjAddr: 0x7684, symBinAddr: 0x10000E810, symSize: 0xA8 }
  - { offsetInCU: 0x1B310, offset: 0x265E0, size: 0x8, addend: 0x0, symName: __ZNSt3__18_IterOpsINS_17_ClassicAlgPolicyEE11__iter_moveB7v160006IRNS_16reverse_iteratorIP6VertexEEEENS_9enable_ifIXsr12is_referenceIDTdeclsr3stdE7declvalIRT_EEEEE5valueEDTclsr3stdE4movedeclsr3stdE7declvalISB_EEEEE4typeEOSA_, symObjAddr: 0x7878, symBinAddr: 0x10000EA04, symSize: 0x28 }
  - { offsetInCU: 0x1B33B, offset: 0x2660B, size: 0x8, addend: 0x0, symName: __ZNSt3__18_IterOpsINS_17_ClassicAlgPolicyEE25__validate_iter_referenceB7v160006IRNS_16reverse_iteratorIP6VertexEEEEvv, symObjAddr: 0x78A0, symBinAddr: 0x10000EA2C, symSize: 0x4 }
  - { offsetInCU: 0x1B359, offset: 0x26629, size: 0x8, addend: 0x0, symName: __ZNSt3__118__unwrap_iter_implINS_16reverse_iteratorIP6VertexEELb0EE8__unwrapB7v160006ES4_, symObjAddr: 0x78A4, symBinAddr: 0x10000EA30, symSize: 0x24 }
  - { offsetInCU: 0x1B381, offset: 0x26651, size: 0x8, addend: 0x0, symName: __ZNSt3__14pairINS_16reverse_iteratorIP6VertexEES4_EC1B7v160006IS4_S4_LPv0EEEOT_OT0_, symObjAddr: 0x78C8, symBinAddr: 0x10000EA54, symSize: 0x3C }
  - { offsetInCU: 0x1B3DF, offset: 0x266AF, size: 0x8, addend: 0x0, symName: __ZNSt3__14pairINS_16reverse_iteratorIP6VertexEES4_EC2B7v160006IS4_S4_LPv0EEEOT_OT0_, symObjAddr: 0x7904, symBinAddr: 0x10000EA90, symSize: 0x34 }
  - { offsetInCU: 0x1B43D, offset: 0x2670D, size: 0x8, addend: 0x0, symName: __ZNSt3__118__unwrap_iter_implINS_16reverse_iteratorIP6VertexEELb0EE8__rewrapB7v160006ES4_S4_, symObjAddr: 0x7938, symBinAddr: 0x10000EAC4, symSize: 0x2C }
  - { offsetInCU: 0x1B46B, offset: 0x2673B, size: 0x8, addend: 0x0, symName: __ZNSt3__114__split_bufferI6VertexRNS_9allocatorIS1_EEED2Ev, symObjAddr: 0x7964, symBinAddr: 0x10000EAF0, symSize: 0x8C }
  - { offsetInCU: 0x1B496, offset: 0x26766, size: 0x8, addend: 0x0, symName: __ZNSt3__114__split_bufferI6VertexRNS_9allocatorIS1_EEE5clearB7v160006Ev, symObjAddr: 0x79F0, symBinAddr: 0x10000EB7C, symSize: 0x28 }
  - { offsetInCU: 0x1B4BB, offset: 0x2678B, size: 0x8, addend: 0x0, symName: __ZNKSt3__114__split_bufferI6VertexRNS_9allocatorIS1_EEE8capacityB7v160006Ev, symObjAddr: 0x7A18, symBinAddr: 0x10000EBA4, symSize: 0x40 }
  - { offsetInCU: 0x1B4E0, offset: 0x267B0, size: 0x8, addend: 0x0, symName: __ZNSt3__114__split_bufferI6VertexRNS_9allocatorIS1_EEE17__destruct_at_endB7v160006EPS1_, symObjAddr: 0x7A58, symBinAddr: 0x10000EBE4, symSize: 0x2C }
  - { offsetInCU: 0x1B513, offset: 0x267E3, size: 0x8, addend: 0x0, symName: __ZNSt3__114__split_bufferI6VertexRNS_9allocatorIS1_EEE17__destruct_at_endB7v160006EPS1_NS_17integral_constantIbLb0EEE, symObjAddr: 0x7A84, symBinAddr: 0x10000EC10, symSize: 0x80 }
  - { offsetInCU: 0x1B553, offset: 0x26823, size: 0x8, addend: 0x0, symName: __ZNKSt3__114__split_bufferI6VertexRNS_9allocatorIS1_EEE9__end_capB7v160006Ev, symObjAddr: 0x7B04, symBinAddr: 0x10000EC90, symSize: 0x28 }
  - { offsetInCU: 0x1B578, offset: 0x26848, size: 0x8, addend: 0x0, symName: __ZNKSt3__117__compressed_pairIP6VertexRNS_9allocatorIS1_EEE5firstB7v160006Ev, symObjAddr: 0x7B2C, symBinAddr: 0x10000ECB8, symSize: 0x24 }
  - { offsetInCU: 0x1B59D, offset: 0x2686D, size: 0x8, addend: 0x0, symName: __ZNSt3__16vectorIN3glm5tvec3IfLNS1_9precisionE0EEENS_9allocatorIS4_EEE9__end_capB7v160006Ev, symObjAddr: 0x7B74, symBinAddr: 0x10000ECDC, symSize: 0x28 }
  - { offsetInCU: 0x1B5C2, offset: 0x26892, size: 0x8, addend: 0x0, symName: __ZNSt3__16vectorIN3glm5tvec3IfLNS1_9precisionE0EEENS_9allocatorIS4_EEE22__construct_one_at_endB7v160006IJRKS4_EEEvDpOT_, symObjAddr: 0x7B9C, symBinAddr: 0x10000ED04, symSize: 0x90 }
  - { offsetInCU: 0x1B612, offset: 0x268E2, size: 0x8, addend: 0x0, symName: __ZNSt3__16vectorIN3glm5tvec3IfLNS1_9precisionE0EEENS_9allocatorIS4_EEE21__push_back_slow_pathIRKS4_EEvOT_, symObjAddr: 0x7C2C, symBinAddr: 0x10000ED94, symSize: 0xD8 }
  - { offsetInCU: 0x1B66F, offset: 0x2693F, size: 0x8, addend: 0x0, symName: __ZNSt3__117__compressed_pairIPN3glm5tvec3IfLNS1_9precisionE0EEENS_9allocatorIS4_EEE5firstB7v160006Ev, symObjAddr: 0x7D04, symBinAddr: 0x10000EE6C, symSize: 0x24 }
  - { offsetInCU: 0x1B694, offset: 0x26964, size: 0x8, addend: 0x0, symName: __ZNSt3__122__compressed_pair_elemIPN3glm5tvec3IfLNS1_9precisionE0EEELi0ELb0EE5__getB7v160006Ev, symObjAddr: 0x7D28, symBinAddr: 0x10000EE90, symSize: 0x14 }
  - { offsetInCU: 0x1B6D2, offset: 0x269A2, size: 0x8, addend: 0x0, symName: __ZNSt3__16vectorIN3glm5tvec3IfLNS1_9precisionE0EEENS_9allocatorIS4_EEE21_ConstructTransactionC1B7v160006ERS7_m, symObjAddr: 0x7D3C, symBinAddr: 0x10000EEA4, symSize: 0x3C }
  - { offsetInCU: 0x1B719, offset: 0x269E9, size: 0x8, addend: 0x0, symName: __ZNSt3__116allocator_traitsINS_9allocatorIN3glm5tvec3IfLNS2_9precisionE0EEEEEE9constructB7v160006IS5_JRKS5_EvEEvRS6_PT_DpOT0_, symObjAddr: 0x7D78, symBinAddr: 0x10000EEE0, symSize: 0x34 }
  - { offsetInCU: 0x1B772, offset: 0x26A42, size: 0x8, addend: 0x0, symName: __ZNSt3__16vectorIN3glm5tvec3IfLNS1_9precisionE0EEENS_9allocatorIS4_EEE21_ConstructTransactionD1B7v160006Ev, symObjAddr: 0x7DAC, symBinAddr: 0x10000EF14, symSize: 0x2C }
  - { offsetInCU: 0x1B79B, offset: 0x26A6B, size: 0x8, addend: 0x0, symName: __ZNSt3__16vectorIN3glm5tvec3IfLNS1_9precisionE0EEENS_9allocatorIS4_EEE21_ConstructTransactionC2B7v160006ERS7_m, symObjAddr: 0x7DD8, symBinAddr: 0x10000EF40, symSize: 0x4C }
  - { offsetInCU: 0x1B7E2, offset: 0x26AB2, size: 0x8, addend: 0x0, symName: __ZNSt3__19allocatorIN3glm5tvec3IfLNS1_9precisionE0EEEE9constructB7v160006IS4_JRKS4_EEEvPT_DpOT0_, symObjAddr: 0x7E24, symBinAddr: 0x10000EF8C, symSize: 0x30 }
  - { offsetInCU: 0x1B839, offset: 0x26B09, size: 0x8, addend: 0x0, symName: __ZN3glm5tvec3IfLNS_9precisionE0EEC1ERKS2_, symObjAddr: 0x7E54, symBinAddr: 0x10000EFBC, symSize: 0x34 }
  - { offsetInCU: 0x1B871, offset: 0x26B41, size: 0x8, addend: 0x0, symName: __ZN3glm5tvec3IfLNS_9precisionE0EEC2ERKS2_, symObjAddr: 0x7E88, symBinAddr: 0x10000EFF0, symSize: 0x3C }
  - { offsetInCU: 0x1B8A9, offset: 0x26B79, size: 0x8, addend: 0x0, symName: __ZNSt3__16vectorIN3glm5tvec3IfLNS1_9precisionE0EEENS_9allocatorIS4_EEE21_ConstructTransactionD2B7v160006Ev, symObjAddr: 0x7EC4, symBinAddr: 0x10000F02C, symSize: 0x20 }
  - { offsetInCU: 0x1B8D2, offset: 0x26BA2, size: 0x8, addend: 0x0, symName: __ZNKSt3__16vectorIN3glm5tvec3IfLNS1_9precisionE0EEENS_9allocatorIS4_EEE11__recommendB7v160006Em, symObjAddr: 0x7EE4, symBinAddr: 0x10000F04C, symSize: 0xB4 }
  - { offsetInCU: 0x1B926, offset: 0x26BF6, size: 0x8, addend: 0x0, symName: __ZNSt3__114__split_bufferIN3glm5tvec3IfLNS1_9precisionE0EEERNS_9allocatorIS4_EEEC1EmmS7_, symObjAddr: 0x7F98, symBinAddr: 0x10000F100, symSize: 0x44 }
  - { offsetInCU: 0x1B97B, offset: 0x26C4B, size: 0x8, addend: 0x0, symName: __ZNSt3__114__split_bufferIN3glm5tvec3IfLNS1_9precisionE0EEERNS_9allocatorIS4_EEED1Ev, symObjAddr: 0x80F4, symBinAddr: 0x10000F25C, symSize: 0x2C }
  - { offsetInCU: 0x1B9A6, offset: 0x26C76, size: 0x8, addend: 0x0, symName: __ZNKSt3__16vectorIN3glm5tvec3IfLNS1_9precisionE0EEENS_9allocatorIS4_EEE8max_sizeEv, symObjAddr: 0x8120, symBinAddr: 0x10000F288, symSize: 0x60 }
  - { offsetInCU: 0x1B9CD, offset: 0x26C9D, size: 0x8, addend: 0x0, symName: __ZNKSt3__16vectorIN3glm5tvec3IfLNS1_9precisionE0EEENS_9allocatorIS4_EEE20__throw_length_errorB7v160006Ev, symObjAddr: 0x8180, symBinAddr: 0x10000F2E8, symSize: 0x1C }
  - { offsetInCU: 0x1B9FC, offset: 0x26CCC, size: 0x8, addend: 0x0, symName: __ZNSt3__116allocator_traitsINS_9allocatorIN3glm5tvec3IfLNS2_9precisionE0EEEEEE8max_sizeB7v160006IS6_vEEmRKS6_, symObjAddr: 0x819C, symBinAddr: 0x10000F304, symSize: 0x24 }
  - { offsetInCU: 0x1BA2A, offset: 0x26CFA, size: 0x8, addend: 0x0, symName: __ZNKSt3__16vectorIN3glm5tvec3IfLNS1_9precisionE0EEENS_9allocatorIS4_EEE7__allocB7v160006Ev, symObjAddr: 0x81C0, symBinAddr: 0x10000F328, symSize: 0x28 }
  - { offsetInCU: 0x1BA4F, offset: 0x26D1F, size: 0x8, addend: 0x0, symName: __ZNKSt3__19allocatorIN3glm5tvec3IfLNS1_9precisionE0EEEE8max_sizeB7v160006Ev, symObjAddr: 0x81E8, symBinAddr: 0x10000F350, symSize: 0x18 }
  - { offsetInCU: 0x1BA74, offset: 0x26D44, size: 0x8, addend: 0x0, symName: __ZNKSt3__117__compressed_pairIPN3glm5tvec3IfLNS1_9precisionE0EEENS_9allocatorIS4_EEE6secondB7v160006Ev, symObjAddr: 0x8200, symBinAddr: 0x10000F368, symSize: 0x24 }
  - { offsetInCU: 0x1BA99, offset: 0x26D69, size: 0x8, addend: 0x0, symName: __ZNKSt3__122__compressed_pair_elemINS_9allocatorIN3glm5tvec3IfLNS2_9precisionE0EEEEELi1ELb1EE5__getB7v160006Ev, symObjAddr: 0x8224, symBinAddr: 0x10000F38C, symSize: 0x14 }
  - { offsetInCU: 0x1BABE, offset: 0x26D8E, size: 0x8, addend: 0x0, symName: __ZNSt3__114__split_bufferIN3glm5tvec3IfLNS1_9precisionE0EEERNS_9allocatorIS4_EEEC2EmmS7_, symObjAddr: 0x8238, symBinAddr: 0x10000F3A0, symSize: 0xE0 }
  - { offsetInCU: 0x1BB31, offset: 0x26E01, size: 0x8, addend: 0x0, symName: __ZNSt3__117__compressed_pairIPN3glm5tvec3IfLNS1_9precisionE0EEERNS_9allocatorIS4_EEEC1B7v160006IDnS8_EEOT_OT0_, symObjAddr: 0x8318, symBinAddr: 0x10000F480, symSize: 0x3C }
  - { offsetInCU: 0x1BB88, offset: 0x26E58, size: 0x8, addend: 0x0, symName: __ZNSt3__114__split_bufferIN3glm5tvec3IfLNS1_9precisionE0EEERNS_9allocatorIS4_EEE7__allocB7v160006Ev, symObjAddr: 0x8394, symBinAddr: 0x10000F4FC, symSize: 0x28 }
  - { offsetInCU: 0x1BBAD, offset: 0x26E7D, size: 0x8, addend: 0x0, symName: __ZNSt3__114__split_bufferIN3glm5tvec3IfLNS1_9precisionE0EEERNS_9allocatorIS4_EEE9__end_capB7v160006Ev, symObjAddr: 0x83BC, symBinAddr: 0x10000F524, symSize: 0x28 }
  - { offsetInCU: 0x1BBD2, offset: 0x26EA2, size: 0x8, addend: 0x0, symName: __ZNSt3__117__compressed_pairIPN3glm5tvec3IfLNS1_9precisionE0EEERNS_9allocatorIS4_EEEC2B7v160006IDnS8_EEOT_OT0_, symObjAddr: 0x83E4, symBinAddr: 0x10000F54C, symSize: 0x48 }
  - { offsetInCU: 0x1BC29, offset: 0x26EF9, size: 0x8, addend: 0x0, symName: __ZNSt3__122__compressed_pair_elemIRNS_9allocatorIN3glm5tvec3IfLNS2_9precisionE0EEEEELi1ELb0EEC2B7v160006IS7_vEEOT_, symObjAddr: 0x842C, symBinAddr: 0x10000F594, symSize: 0x20 }
  - { offsetInCU: 0x1BC6B, offset: 0x26F3B, size: 0x8, addend: 0x0, symName: __ZNSt3__19allocatorIN3glm5tvec3IfLNS1_9precisionE0EEEE8allocateB7v160006Em, symObjAddr: 0x844C, symBinAddr: 0x10000F5B4, symSize: 0x5C }
  - { offsetInCU: 0x1BC9E, offset: 0x26F6E, size: 0x8, addend: 0x0, symName: __ZNSt3__117__compressed_pairIPN3glm5tvec3IfLNS1_9precisionE0EEERNS_9allocatorIS4_EEE6secondB7v160006Ev, symObjAddr: 0x84A8, symBinAddr: 0x10000F610, symSize: 0x28 }
  - { offsetInCU: 0x1BCC3, offset: 0x26F93, size: 0x8, addend: 0x0, symName: __ZNSt3__122__compressed_pair_elemIRNS_9allocatorIN3glm5tvec3IfLNS2_9precisionE0EEEEELi1ELb0EE5__getB7v160006Ev, symObjAddr: 0x84D0, symBinAddr: 0x10000F638, symSize: 0x18 }
  - { offsetInCU: 0x1BCE8, offset: 0x26FB8, size: 0x8, addend: 0x0, symName: __ZNSt3__117__compressed_pairIPN3glm5tvec3IfLNS1_9precisionE0EEERNS_9allocatorIS4_EEE5firstB7v160006Ev, symObjAddr: 0x84E8, symBinAddr: 0x10000F650, symSize: 0x24 }
  - { offsetInCU: 0x1BD0D, offset: 0x26FDD, size: 0x8, addend: 0x0, symName: __ZNSt3__116reverse_iteratorIPN3glm5tvec3IfLNS1_9precisionE0EEEEC1B7v160006ES5_, symObjAddr: 0x8638, symBinAddr: 0x10000F7A0, symSize: 0x34 }
  - { offsetInCU: 0x1BD44, offset: 0x27014, size: 0x8, addend: 0x0, symName: __ZNKSt3__116reverse_iteratorIPN3glm5tvec3IfLNS1_9precisionE0EEEE4baseB7v160006Ev, symObjAddr: 0x866C, symBinAddr: 0x10000F7D4, symSize: 0x18 }
  - { offsetInCU: 0x1BD69, offset: 0x27039, size: 0x8, addend: 0x0, symName: __ZNKSt3__16vectorIN3glm5tvec3IfLNS1_9precisionE0EEENS_9allocatorIS4_EEE14__annotate_newB7v160006Em, symObjAddr: 0x86C0, symBinAddr: 0x10000F828, symSize: 0xC8 }
  - { offsetInCU: 0x1BD9D, offset: 0x2706D, size: 0x8, addend: 0x0, symName: __ZNSt3__129_AllocatorDestroyRangeReverseINS_9allocatorIN3glm5tvec3IfLNS2_9precisionE0EEEEENS_16reverse_iteratorIPS5_EEEC1B7v160006ERS6_RS9_SC_, symObjAddr: 0x87E4, symBinAddr: 0x10000F94C, symSize: 0x44 }
  - { offsetInCU: 0x1BDF3, offset: 0x270C3, size: 0x8, addend: 0x0, symName: __ZNKSt3__116reverse_iteratorIPN3glm5tvec3IfLNS1_9precisionE0EEEEdeB7v160006Ev, symObjAddr: 0x8894, symBinAddr: 0x10000F9FC, symSize: 0x28 }
  - { offsetInCU: 0x1BE26, offset: 0x270F6, size: 0x8, addend: 0x0, symName: __ZNSt3__116reverse_iteratorIPN3glm5tvec3IfLNS1_9precisionE0EEEEppB7v160006Ev, symObjAddr: 0x88BC, symBinAddr: 0x10000FA24, symSize: 0x20 }
  - { offsetInCU: 0x1BE4B, offset: 0x2711B, size: 0x8, addend: 0x0, symName: __ZNSt3__128__exception_guard_exceptionsINS_29_AllocatorDestroyRangeReverseINS_9allocatorIN3glm5tvec3IfLNS3_9precisionE0EEEEENS_16reverse_iteratorIPS6_EEEEE10__completeB7v160006Ev, symObjAddr: 0x88DC, symBinAddr: 0x10000FA44, symSize: 0x1C }
  - { offsetInCU: 0x1BE70, offset: 0x27140, size: 0x8, addend: 0x0, symName: __ZNSt3__128__exception_guard_exceptionsINS_29_AllocatorDestroyRangeReverseINS_9allocatorIN3glm5tvec3IfLNS3_9precisionE0EEEEENS_16reverse_iteratorIPS6_EEEEED1B7v160006Ev, symObjAddr: 0x88F8, symBinAddr: 0x10000FA60, symSize: 0x2C }
  - { offsetInCU: 0x1BE99, offset: 0x27169, size: 0x8, addend: 0x0, symName: __ZNSt3__128__exception_guard_exceptionsINS_29_AllocatorDestroyRangeReverseINS_9allocatorIN3glm5tvec3IfLNS3_9precisionE0EEEEENS_16reverse_iteratorIPS6_EEEEEC1B7v160006ESB_, symObjAddr: 0x8924, symBinAddr: 0x10000FA8C, symSize: 0x34 }
  - { offsetInCU: 0x1BED1, offset: 0x271A1, size: 0x8, addend: 0x0, symName: __ZNSt3__128__exception_guard_exceptionsINS_29_AllocatorDestroyRangeReverseINS_9allocatorIN3glm5tvec3IfLNS3_9precisionE0EEEEENS_16reverse_iteratorIPS6_EEEEEC2B7v160006ESB_, symObjAddr: 0x8958, symBinAddr: 0x10000FAC0, symSize: 0x30 }
  - { offsetInCU: 0x1BF09, offset: 0x271D9, size: 0x8, addend: 0x0, symName: __ZNSt3__129_AllocatorDestroyRangeReverseINS_9allocatorIN3glm5tvec3IfLNS2_9precisionE0EEEEENS_16reverse_iteratorIPS5_EEEC2B7v160006ERS6_RS9_SC_, symObjAddr: 0x8988, symBinAddr: 0x10000FAF0, symSize: 0x38 }
  - { offsetInCU: 0x1BF64, offset: 0x27234, size: 0x8, addend: 0x0, symName: __ZNSt3__119__to_address_helperINS_16reverse_iteratorIPN3glm5tvec3IfLNS2_9precisionE0EEEEEvE6__callB7v160006ERKS7_, symObjAddr: 0x89C0, symBinAddr: 0x10000FB28, symSize: 0x38 }
  - { offsetInCU: 0x1BF86, offset: 0x27256, size: 0x8, addend: 0x0, symName: __ZNKSt3__116reverse_iteratorIPN3glm5tvec3IfLNS1_9precisionE0EEEEptB7v160006Ev, symObjAddr: 0x89F8, symBinAddr: 0x10000FB60, symSize: 0x24 }
  - { offsetInCU: 0x1BFAB, offset: 0x2727B, size: 0x8, addend: 0x0, symName: __ZNSt3__128__exception_guard_exceptionsINS_29_AllocatorDestroyRangeReverseINS_9allocatorIN3glm5tvec3IfLNS3_9precisionE0EEEEENS_16reverse_iteratorIPS6_EEEEED2B7v160006Ev, symObjAddr: 0x8A1C, symBinAddr: 0x10000FB84, symSize: 0x50 }
  - { offsetInCU: 0x1BFD4, offset: 0x272A4, size: 0x8, addend: 0x0, symName: __ZNKSt3__129_AllocatorDestroyRangeReverseINS_9allocatorIN3glm5tvec3IfLNS2_9precisionE0EEEEENS_16reverse_iteratorIPS5_EEEclB7v160006Ev, symObjAddr: 0x8A6C, symBinAddr: 0x10000FBD4, symSize: 0xB4 }
  - { offsetInCU: 0x1BFFA, offset: 0x272CA, size: 0x8, addend: 0x0, symName: __ZNSt3__116reverse_iteratorINS0_IPN3glm5tvec3IfLNS1_9precisionE0EEEEEEC1B7v160006ES6_, symObjAddr: 0x8B90, symBinAddr: 0x10000FCF8, symSize: 0x3C }
  - { offsetInCU: 0x1C031, offset: 0x27301, size: 0x8, addend: 0x0, symName: __ZNSt3__116reverse_iteratorINS0_IPN3glm5tvec3IfLNS1_9precisionE0EEEEEEppB7v160006Ev, symObjAddr: 0x8C50, symBinAddr: 0x10000FDB8, symSize: 0x30 }
  - { offsetInCU: 0x1C056, offset: 0x27326, size: 0x8, addend: 0x0, symName: __ZNKSt3__116reverse_iteratorINS0_IPN3glm5tvec3IfLNS1_9precisionE0EEEEEE4baseB7v160006Ev, symObjAddr: 0x8C80, symBinAddr: 0x10000FDE8, symSize: 0x24 }
  - { offsetInCU: 0x1C080, offset: 0x27350, size: 0x8, addend: 0x0, symName: __ZNSt3__119__to_address_helperINS_16reverse_iteratorINS1_IPN3glm5tvec3IfLNS2_9precisionE0EEEEEEEvE6__callB7v160006ERKS8_, symObjAddr: 0x8CA4, symBinAddr: 0x10000FE0C, symSize: 0x38 }
  - { offsetInCU: 0x1C0A2, offset: 0x27372, size: 0x8, addend: 0x0, symName: __ZNKSt3__116reverse_iteratorINS0_IPN3glm5tvec3IfLNS1_9precisionE0EEEEEEptB7v160006Ev, symObjAddr: 0x8CDC, symBinAddr: 0x10000FE44, symSize: 0x24 }
  - { offsetInCU: 0x1C0C7, offset: 0x27397, size: 0x8, addend: 0x0, symName: __ZNKSt3__116reverse_iteratorINS0_IPN3glm5tvec3IfLNS1_9precisionE0EEEEEEdeB7v160006Ev, symObjAddr: 0x8D00, symBinAddr: 0x10000FE68, symSize: 0x34 }
  - { offsetInCU: 0x1C0FA, offset: 0x273CA, size: 0x8, addend: 0x0, symName: __ZNSt3__116reverse_iteratorIPN3glm5tvec3IfLNS1_9precisionE0EEEEmmB7v160006Ev, symObjAddr: 0x8D34, symBinAddr: 0x10000FE9C, symSize: 0x20 }
  - { offsetInCU: 0x1C11F, offset: 0x273EF, size: 0x8, addend: 0x0, symName: __ZNSt3__116reverse_iteratorINS0_IPN3glm5tvec3IfLNS1_9precisionE0EEEEEEC2B7v160006ES6_, symObjAddr: 0x8D54, symBinAddr: 0x10000FEBC, symSize: 0x2C }
  - { offsetInCU: 0x1C156, offset: 0x27426, size: 0x8, addend: 0x0, symName: __ZNSt3__116reverse_iteratorIPN3glm5tvec3IfLNS1_9precisionE0EEEEC2B7v160006ES5_, symObjAddr: 0x8D80, symBinAddr: 0x10000FEE8, symSize: 0x28 }
  - { offsetInCU: 0x1C18D, offset: 0x2745D, size: 0x8, addend: 0x0, symName: __ZNSt3__114__split_bufferIN3glm5tvec3IfLNS1_9precisionE0EEERNS_9allocatorIS4_EEED2Ev, symObjAddr: 0x8DA8, symBinAddr: 0x10000FF10, symSize: 0x8C }
  - { offsetInCU: 0x1C1B8, offset: 0x27488, size: 0x8, addend: 0x0, symName: __ZNSt3__114__split_bufferIN3glm5tvec3IfLNS1_9precisionE0EEERNS_9allocatorIS4_EEE5clearB7v160006Ev, symObjAddr: 0x8E34, symBinAddr: 0x10000FF9C, symSize: 0x28 }
  - { offsetInCU: 0x1C1DD, offset: 0x274AD, size: 0x8, addend: 0x0, symName: __ZNKSt3__114__split_bufferIN3glm5tvec3IfLNS1_9precisionE0EEERNS_9allocatorIS4_EEE8capacityB7v160006Ev, symObjAddr: 0x8E5C, symBinAddr: 0x10000FFC4, symSize: 0x40 }
  - { offsetInCU: 0x1C202, offset: 0x274D2, size: 0x8, addend: 0x0, symName: __ZNSt3__114__split_bufferIN3glm5tvec3IfLNS1_9precisionE0EEERNS_9allocatorIS4_EEE17__destruct_at_endB7v160006EPS4_, symObjAddr: 0x8E9C, symBinAddr: 0x100010004, symSize: 0x2C }
  - { offsetInCU: 0x1C235, offset: 0x27505, size: 0x8, addend: 0x0, symName: __ZNSt3__114__split_bufferIN3glm5tvec3IfLNS1_9precisionE0EEERNS_9allocatorIS4_EEE17__destruct_at_endB7v160006EPS4_NS_17integral_constantIbLb0EEE, symObjAddr: 0x8EC8, symBinAddr: 0x100010030, symSize: 0x80 }
  - { offsetInCU: 0x1C275, offset: 0x27545, size: 0x8, addend: 0x0, symName: __ZNKSt3__114__split_bufferIN3glm5tvec3IfLNS1_9precisionE0EEERNS_9allocatorIS4_EEE9__end_capB7v160006Ev, symObjAddr: 0x8F48, symBinAddr: 0x1000100B0, symSize: 0x28 }
  - { offsetInCU: 0x1C29A, offset: 0x2756A, size: 0x8, addend: 0x0, symName: __ZNKSt3__117__compressed_pairIPN3glm5tvec3IfLNS1_9precisionE0EEERNS_9allocatorIS4_EEE5firstB7v160006Ev, symObjAddr: 0x8F70, symBinAddr: 0x1000100D8, symSize: 0x24 }
  - { offsetInCU: 0x1C2BF, offset: 0x2758F, size: 0x8, addend: 0x0, symName: __ZNSt3__111char_traitsIcE2eqEcc, symObjAddr: 0x8F94, symBinAddr: 0x1000100FC, symSize: 0x28 }
  - { offsetInCU: 0x1C2F0, offset: 0x275C0, size: 0x8, addend: 0x0, symName: __ZNSt3__16vectorI8TriangleNS_9allocatorIS1_EEE22__construct_one_at_endB7v160006IJRKS1_EEEvDpOT_, symObjAddr: 0x8FBC, symBinAddr: 0x100010124, symSize: 0x90 }
  - { offsetInCU: 0x1C340, offset: 0x27610, size: 0x8, addend: 0x0, symName: __ZNSt3__16vectorI8TriangleNS_9allocatorIS1_EEE21__push_back_slow_pathIRKS1_EEvOT_, symObjAddr: 0x904C, symBinAddr: 0x1000101B4, symSize: 0xD8 }
  - { offsetInCU: 0x1C39D, offset: 0x2766D, size: 0x8, addend: 0x0, symName: __ZNSt3__116allocator_traitsINS_9allocatorI8TriangleEEE9constructB7v160006IS2_JRKS2_EvEEvRS3_PT_DpOT0_, symObjAddr: 0x9124, symBinAddr: 0x10001028C, symSize: 0x34 }
  - { offsetInCU: 0x1C3F6, offset: 0x276C6, size: 0x8, addend: 0x0, symName: __ZNSt3__19allocatorI8TriangleE9constructB7v160006IS1_JRKS1_EEEvPT_DpOT0_, symObjAddr: 0x9158, symBinAddr: 0x1000102C0, symSize: 0x30 }
  - { offsetInCU: 0x1C44D, offset: 0x2771D, size: 0x8, addend: 0x0, symName: __ZNKSt3__16vectorI8TriangleNS_9allocatorIS1_EEE11__recommendB7v160006Em, symObjAddr: 0x9188, symBinAddr: 0x1000102F0, symSize: 0xB4 }
  - { offsetInCU: 0x1C4A1, offset: 0x27771, size: 0x8, addend: 0x0, symName: __ZNSt3__114__split_bufferI8TriangleRNS_9allocatorIS1_EEEC1EmmS4_, symObjAddr: 0x923C, symBinAddr: 0x1000103A4, symSize: 0x44 }
  - { offsetInCU: 0x1C4F6, offset: 0x277C6, size: 0x8, addend: 0x0, symName: __ZNSt3__114__split_bufferI8TriangleRNS_9allocatorIS1_EEED1Ev, symObjAddr: 0x9398, symBinAddr: 0x100010500, symSize: 0x2C }
  - { offsetInCU: 0x1C521, offset: 0x277F1, size: 0x8, addend: 0x0, symName: __ZNSt3__114__split_bufferI8TriangleRNS_9allocatorIS1_EEEC2EmmS4_, symObjAddr: 0x93C4, symBinAddr: 0x10001052C, symSize: 0xE0 }
  - { offsetInCU: 0x1C594, offset: 0x27864, size: 0x8, addend: 0x0, symName: __ZNSt3__117__compressed_pairIP8TriangleRNS_9allocatorIS1_EEEC1B7v160006IDnS5_EEOT_OT0_, symObjAddr: 0x94A4, symBinAddr: 0x10001060C, symSize: 0x3C }
  - { offsetInCU: 0x1C5EB, offset: 0x278BB, size: 0x8, addend: 0x0, symName: __ZNSt3__114__split_bufferI8TriangleRNS_9allocatorIS1_EEE7__allocB7v160006Ev, symObjAddr: 0x94E0, symBinAddr: 0x100010648, symSize: 0x28 }
  - { offsetInCU: 0x1C610, offset: 0x278E0, size: 0x8, addend: 0x0, symName: __ZNSt3__114__split_bufferI8TriangleRNS_9allocatorIS1_EEE9__end_capB7v160006Ev, symObjAddr: 0x9508, symBinAddr: 0x100010670, symSize: 0x28 }
  - { offsetInCU: 0x1C635, offset: 0x27905, size: 0x8, addend: 0x0, symName: __ZNSt3__117__compressed_pairIP8TriangleRNS_9allocatorIS1_EEEC2B7v160006IDnS5_EEOT_OT0_, symObjAddr: 0x9530, symBinAddr: 0x100010698, symSize: 0x48 }
  - { offsetInCU: 0x1C68C, offset: 0x2795C, size: 0x8, addend: 0x0, symName: __ZNSt3__122__compressed_pair_elemIRNS_9allocatorI8TriangleEELi1ELb0EEC2B7v160006IS4_vEEOT_, symObjAddr: 0x9578, symBinAddr: 0x1000106E0, symSize: 0x20 }
  - { offsetInCU: 0x1C6CE, offset: 0x2799E, size: 0x8, addend: 0x0, symName: __ZNSt3__117__compressed_pairIP8TriangleRNS_9allocatorIS1_EEE6secondB7v160006Ev, symObjAddr: 0x9598, symBinAddr: 0x100010700, symSize: 0x28 }
  - { offsetInCU: 0x1C6F3, offset: 0x279C3, size: 0x8, addend: 0x0, symName: __ZNSt3__122__compressed_pair_elemIRNS_9allocatorI8TriangleEELi1ELb0EE5__getB7v160006Ev, symObjAddr: 0x95C0, symBinAddr: 0x100010728, symSize: 0x18 }
  - { offsetInCU: 0x1C718, offset: 0x279E8, size: 0x8, addend: 0x0, symName: __ZNSt3__117__compressed_pairIP8TriangleRNS_9allocatorIS1_EEE5firstB7v160006Ev, symObjAddr: 0x95D8, symBinAddr: 0x100010740, symSize: 0x24 }
  - { offsetInCU: 0x1C756, offset: 0x27A26, size: 0x8, addend: 0x0, symName: __ZNKSt3__111__move_loopINS_17_ClassicAlgPolicyEEclB7v160006INS_16reverse_iteratorIP8TriangleEES7_S7_EENS_4pairIT_T1_EES9_T0_SA_, symObjAddr: 0x99B0, symBinAddr: 0x100010B18, symSize: 0xA8 }
  - { offsetInCU: 0x1C7C5, offset: 0x27A95, size: 0x8, addend: 0x0, symName: __ZNSt3__18_IterOpsINS_17_ClassicAlgPolicyEE11__iter_moveB7v160006IRNS_16reverse_iteratorIP8TriangleEEEENS_9enable_ifIXsr12is_referenceIDTdeclsr3stdE7declvalIRT_EEEEE5valueEDTclsr3stdE4movedeclsr3stdE7declvalISB_EEEEE4typeEOSA_, symObjAddr: 0x9BA4, symBinAddr: 0x100010D0C, symSize: 0x28 }
  - { offsetInCU: 0x1C7F0, offset: 0x27AC0, size: 0x8, addend: 0x0, symName: __ZNSt3__18_IterOpsINS_17_ClassicAlgPolicyEE25__validate_iter_referenceB7v160006IRNS_16reverse_iteratorIP8TriangleEEEEvv, symObjAddr: 0x9BCC, symBinAddr: 0x100010D34, symSize: 0x4 }
  - { offsetInCU: 0x1C80E, offset: 0x27ADE, size: 0x8, addend: 0x0, symName: __ZNSt3__118__unwrap_iter_implINS_16reverse_iteratorIP8TriangleEELb0EE8__unwrapB7v160006ES4_, symObjAddr: 0x9BD0, symBinAddr: 0x100010D38, symSize: 0x24 }
  - { offsetInCU: 0x1C836, offset: 0x27B06, size: 0x8, addend: 0x0, symName: __ZNSt3__14pairINS_16reverse_iteratorIP8TriangleEES4_EC1B7v160006IS4_S4_LPv0EEEOT_OT0_, symObjAddr: 0x9BF4, symBinAddr: 0x100010D5C, symSize: 0x3C }
  - { offsetInCU: 0x1C894, offset: 0x27B64, size: 0x8, addend: 0x0, symName: __ZNSt3__14pairINS_16reverse_iteratorIP8TriangleEES4_EC2B7v160006IS4_S4_LPv0EEEOT_OT0_, symObjAddr: 0x9C30, symBinAddr: 0x100010D98, symSize: 0x34 }
  - { offsetInCU: 0x1C8F2, offset: 0x27BC2, size: 0x8, addend: 0x0, symName: __ZNSt3__118__unwrap_iter_implINS_16reverse_iteratorIP8TriangleEELb0EE8__rewrapB7v160006ES4_S4_, symObjAddr: 0x9C64, symBinAddr: 0x100010DCC, symSize: 0x2C }
  - { offsetInCU: 0x1C920, offset: 0x27BF0, size: 0x8, addend: 0x0, symName: __ZNSt3__114__split_bufferI8TriangleRNS_9allocatorIS1_EEED2Ev, symObjAddr: 0x9C90, symBinAddr: 0x100010DF8, symSize: 0x8C }
  - { offsetInCU: 0x1C94B, offset: 0x27C1B, size: 0x8, addend: 0x0, symName: __ZNSt3__114__split_bufferI8TriangleRNS_9allocatorIS1_EEE5clearB7v160006Ev, symObjAddr: 0x9D1C, symBinAddr: 0x100010E84, symSize: 0x28 }
  - { offsetInCU: 0x1C970, offset: 0x27C40, size: 0x8, addend: 0x0, symName: __ZNKSt3__114__split_bufferI8TriangleRNS_9allocatorIS1_EEE8capacityB7v160006Ev, symObjAddr: 0x9D44, symBinAddr: 0x100010EAC, symSize: 0x40 }
  - { offsetInCU: 0x1C995, offset: 0x27C65, size: 0x8, addend: 0x0, symName: __ZNSt3__114__split_bufferI8TriangleRNS_9allocatorIS1_EEE17__destruct_at_endB7v160006EPS1_, symObjAddr: 0x9D84, symBinAddr: 0x100010EEC, symSize: 0x2C }
  - { offsetInCU: 0x1C9C8, offset: 0x27C98, size: 0x8, addend: 0x0, symName: __ZNSt3__114__split_bufferI8TriangleRNS_9allocatorIS1_EEE17__destruct_at_endB7v160006EPS1_NS_17integral_constantIbLb0EEE, symObjAddr: 0x9DB0, symBinAddr: 0x100010F18, symSize: 0x80 }
  - { offsetInCU: 0x1CA08, offset: 0x27CD8, size: 0x8, addend: 0x0, symName: __ZNKSt3__114__split_bufferI8TriangleRNS_9allocatorIS1_EEE9__end_capB7v160006Ev, symObjAddr: 0x9E30, symBinAddr: 0x100010F98, symSize: 0x28 }
  - { offsetInCU: 0x1CA2D, offset: 0x27CFD, size: 0x8, addend: 0x0, symName: __ZNKSt3__117__compressed_pairIP8TriangleRNS_9allocatorIS1_EEE5firstB7v160006Ev, symObjAddr: 0x9E58, symBinAddr: 0x100010FC0, symSize: 0x24 }
  - { offsetInCU: 0x26, offset: 0x27F0E, size: 0x8, addend: 0x0, symName: _gladLoadGL, symObjAddr: 0x0, symBinAddr: 0x100010FE4, symSize: 0x4C }
  - { offsetInCU: 0x40, offset: 0x27F28, size: 0x8, addend: 0x0, symName: _GLVersion, symObjAddr: 0x299E0, symBinAddr: 0x100028040, symSize: 0x0 }
  - { offsetInCU: 0x7F, offset: 0x27F67, size: 0x8, addend: 0x0, symName: _GLAD_GL_VERSION_1_0, symObjAddr: 0x299E8, symBinAddr: 0x100028048, symSize: 0x0 }
  - { offsetInCU: 0x95, offset: 0x27F7D, size: 0x8, addend: 0x0, symName: _GLAD_GL_VERSION_1_1, symObjAddr: 0x299EC, symBinAddr: 0x10002804C, symSize: 0x0 }
  - { offsetInCU: 0xAB, offset: 0x27F93, size: 0x8, addend: 0x0, symName: _GLAD_GL_VERSION_1_2, symObjAddr: 0x299F0, symBinAddr: 0x100028050, symSize: 0x0 }
  - { offsetInCU: 0xC1, offset: 0x27FA9, size: 0x8, addend: 0x0, symName: _GLAD_GL_VERSION_1_3, symObjAddr: 0x299F4, symBinAddr: 0x100028054, symSize: 0x0 }
  - { offsetInCU: 0xD7, offset: 0x27FBF, size: 0x8, addend: 0x0, symName: _GLAD_GL_VERSION_1_4, symObjAddr: 0x299F8, symBinAddr: 0x100028058, symSize: 0x0 }
  - { offsetInCU: 0xED, offset: 0x27FD5, size: 0x8, addend: 0x0, symName: _GLAD_GL_VERSION_1_5, symObjAddr: 0x299FC, symBinAddr: 0x10002805C, symSize: 0x0 }
  - { offsetInCU: 0x103, offset: 0x27FEB, size: 0x8, addend: 0x0, symName: _GLAD_GL_VERSION_2_0, symObjAddr: 0x29A00, symBinAddr: 0x100028060, symSize: 0x0 }
  - { offsetInCU: 0x119, offset: 0x28001, size: 0x8, addend: 0x0, symName: _GLAD_GL_VERSION_2_1, symObjAddr: 0x29A04, symBinAddr: 0x100028064, symSize: 0x0 }
  - { offsetInCU: 0x12F, offset: 0x28017, size: 0x8, addend: 0x0, symName: _GLAD_GL_VERSION_3_0, symObjAddr: 0x29A08, symBinAddr: 0x100028068, symSize: 0x0 }
  - { offsetInCU: 0x145, offset: 0x2802D, size: 0x8, addend: 0x0, symName: _GLAD_GL_VERSION_3_1, symObjAddr: 0x29A0C, symBinAddr: 0x10002806C, symSize: 0x0 }
  - { offsetInCU: 0x15B, offset: 0x28043, size: 0x8, addend: 0x0, symName: _GLAD_GL_VERSION_3_2, symObjAddr: 0x29A10, symBinAddr: 0x100028070, symSize: 0x0 }
  - { offsetInCU: 0x171, offset: 0x28059, size: 0x8, addend: 0x0, symName: _GLAD_GL_VERSION_3_3, symObjAddr: 0x29A14, symBinAddr: 0x100028074, symSize: 0x0 }
  - { offsetInCU: 0x187, offset: 0x2806F, size: 0x8, addend: 0x0, symName: _glad_glCopyTexImage1D, symObjAddr: 0x29A18, symBinAddr: 0x100028078, symSize: 0x0 }
  - { offsetInCU: 0x1FB, offset: 0x280E3, size: 0x8, addend: 0x0, symName: _glad_glVertexAttribI3ui, symObjAddr: 0x29A20, symBinAddr: 0x100028080, symSize: 0x0 }
  - { offsetInCU: 0x243, offset: 0x2812B, size: 0x8, addend: 0x0, symName: _glad_glWindowPos2s, symObjAddr: 0x29A28, symBinAddr: 0x100028088, symSize: 0x0 }
  - { offsetInCU: 0x288, offset: 0x28170, size: 0x8, addend: 0x0, symName: _glad_glWindowPos2i, symObjAddr: 0x29A30, symBinAddr: 0x100028090, symSize: 0x0 }
  - { offsetInCU: 0x2BB, offset: 0x281A3, size: 0x8, addend: 0x0, symName: _glad_glWindowPos2f, symObjAddr: 0x29A38, symBinAddr: 0x100028098, symSize: 0x0 }
  - { offsetInCU: 0x300, offset: 0x281E8, size: 0x8, addend: 0x0, symName: _glad_glWindowPos2d, symObjAddr: 0x29A40, symBinAddr: 0x1000280A0, symSize: 0x0 }
  - { offsetInCU: 0x346, offset: 0x2822E, size: 0x8, addend: 0x0, symName: _glad_glVertex2fv, symObjAddr: 0x29A48, symBinAddr: 0x1000280A8, symSize: 0x0 }
  - { offsetInCU: 0x37F, offset: 0x28267, size: 0x8, addend: 0x0, symName: _glad_glIndexi, symObjAddr: 0x29A50, symBinAddr: 0x1000280B0, symSize: 0x0 }
  - { offsetInCU: 0x3AE, offset: 0x28296, size: 0x8, addend: 0x0, symName: _glad_glFramebufferRenderbuffer, symObjAddr: 0x29A58, symBinAddr: 0x1000280B8, symSize: 0x0 }
  - { offsetInCU: 0x3EC, offset: 0x282D4, size: 0x8, addend: 0x0, symName: _glad_glRectdv, symObjAddr: 0x29A60, symBinAddr: 0x1000280C0, symSize: 0x0 }
  - { offsetInCU: 0x42A, offset: 0x28312, size: 0x8, addend: 0x0, symName: _glad_glCompressedTexSubImage3D, symObjAddr: 0x29A68, symBinAddr: 0x1000280C8, symSize: 0x0 }
  - { offsetInCU: 0x491, offset: 0x28379, size: 0x8, addend: 0x0, symName: _glad_glEvalCoord2d, symObjAddr: 0x29A70, symBinAddr: 0x1000280D0, symSize: 0x0 }
  - { offsetInCU: 0x4B4, offset: 0x2839C, size: 0x8, addend: 0x0, symName: _glad_glEvalCoord2f, symObjAddr: 0x29A78, symBinAddr: 0x1000280D8, symSize: 0x0 }
  - { offsetInCU: 0x4D7, offset: 0x283BF, size: 0x8, addend: 0x0, symName: _glad_glIndexd, symObjAddr: 0x29A80, symBinAddr: 0x1000280E0, symSize: 0x0 }
  - { offsetInCU: 0x506, offset: 0x283EE, size: 0x8, addend: 0x0, symName: _glad_glVertexAttrib1sv, symObjAddr: 0x29A88, symBinAddr: 0x1000280E8, symSize: 0x0 }
  - { offsetInCU: 0x544, offset: 0x2842C, size: 0x8, addend: 0x0, symName: _glad_glIndexf, symObjAddr: 0x29A90, symBinAddr: 0x1000280F0, symSize: 0x0 }
  - { offsetInCU: 0x573, offset: 0x2845B, size: 0x8, addend: 0x0, symName: _glad_glBindSampler, symObjAddr: 0x29A98, symBinAddr: 0x1000280F8, symSize: 0x0 }
  - { offsetInCU: 0x5A7, offset: 0x2848F, size: 0x8, addend: 0x0, symName: _glad_glLineWidth, symObjAddr: 0x29AA0, symBinAddr: 0x100028100, symSize: 0x0 }
  - { offsetInCU: 0x5CA, offset: 0x284B2, size: 0x8, addend: 0x0, symName: _glad_glColorP3uiv, symObjAddr: 0x29AA8, symBinAddr: 0x100028108, symSize: 0x0 }
  - { offsetInCU: 0x608, offset: 0x284F0, size: 0x8, addend: 0x0, symName: _glad_glGetIntegeri_v, symObjAddr: 0x29AB0, symBinAddr: 0x100028110, symSize: 0x0 }
  - { offsetInCU: 0x646, offset: 0x2852E, size: 0x8, addend: 0x0, symName: _glad_glGetMapfv, symObjAddr: 0x29AB8, symBinAddr: 0x100028118, symSize: 0x0 }
  - { offsetInCU: 0x684, offset: 0x2856C, size: 0x8, addend: 0x0, symName: _glad_glIndexs, symObjAddr: 0x29AC0, symBinAddr: 0x100028120, symSize: 0x0 }
  - { offsetInCU: 0x6B3, offset: 0x2859B, size: 0x8, addend: 0x0, symName: _glad_glCompileShader, symObjAddr: 0x29AC8, symBinAddr: 0x100028128, symSize: 0x0 }
  - { offsetInCU: 0x6E2, offset: 0x285CA, size: 0x8, addend: 0x0, symName: _glad_glGetTransformFeedbackVarying, symObjAddr: 0x29AD0, symBinAddr: 0x100028130, symSize: 0x0 }
  - { offsetInCU: 0x750, offset: 0x28638, size: 0x8, addend: 0x0, symName: _glad_glWindowPos2iv, symObjAddr: 0x29AD8, symBinAddr: 0x100028138, symSize: 0x0 }
  - { offsetInCU: 0x789, offset: 0x28671, size: 0x8, addend: 0x0, symName: _glad_glIndexfv, symObjAddr: 0x29AE0, symBinAddr: 0x100028140, symSize: 0x0 }
  - { offsetInCU: 0x7AC, offset: 0x28694, size: 0x8, addend: 0x0, symName: _glad_glFogiv, symObjAddr: 0x29AE8, symBinAddr: 0x100028148, symSize: 0x0 }
  - { offsetInCU: 0x7E0, offset: 0x286C8, size: 0x8, addend: 0x0, symName: _glad_glStencilMaskSeparate, symObjAddr: 0x29AF0, symBinAddr: 0x100028150, symSize: 0x0 }
  - { offsetInCU: 0x814, offset: 0x286FC, size: 0x8, addend: 0x0, symName: _glad_glRasterPos2fv, symObjAddr: 0x29AF8, symBinAddr: 0x100028158, symSize: 0x0 }
  - { offsetInCU: 0x837, offset: 0x2871F, size: 0x8, addend: 0x0, symName: _glad_glLightModeliv, symObjAddr: 0x29B00, symBinAddr: 0x100028160, symSize: 0x0 }
  - { offsetInCU: 0x85A, offset: 0x28742, size: 0x8, addend: 0x0, symName: _glad_glColor4ui, symObjAddr: 0x29B08, symBinAddr: 0x100028168, symSize: 0x0 }
  - { offsetInCU: 0x87D, offset: 0x28765, size: 0x8, addend: 0x0, symName: _glad_glSecondaryColor3fv, symObjAddr: 0x29B10, symBinAddr: 0x100028170, symSize: 0x0 }
  - { offsetInCU: 0x8A0, offset: 0x28788, size: 0x8, addend: 0x0, symName: _glad_glMultiTexCoordP3ui, symObjAddr: 0x29B18, symBinAddr: 0x100028178, symSize: 0x0 }
  - { offsetInCU: 0x8D9, offset: 0x287C1, size: 0x8, addend: 0x0, symName: _glad_glFogfv, symObjAddr: 0x29B20, symBinAddr: 0x100028180, symSize: 0x0 }
  - { offsetInCU: 0x90D, offset: 0x287F5, size: 0x8, addend: 0x0, symName: _glad_glVertexP4ui, symObjAddr: 0x29B28, symBinAddr: 0x100028188, symSize: 0x0 }
  - { offsetInCU: 0x930, offset: 0x28818, size: 0x8, addend: 0x0, symName: _glad_glEnablei, symObjAddr: 0x29B30, symBinAddr: 0x100028190, symSize: 0x0 }
  - { offsetInCU: 0x953, offset: 0x2883B, size: 0x8, addend: 0x0, symName: _glad_glVertex4iv, symObjAddr: 0x29B38, symBinAddr: 0x100028198, symSize: 0x0 }
  - { offsetInCU: 0x976, offset: 0x2885E, size: 0x8, addend: 0x0, symName: _glad_glEvalCoord1fv, symObjAddr: 0x29B40, symBinAddr: 0x1000281A0, symSize: 0x0 }
  - { offsetInCU: 0x999, offset: 0x28881, size: 0x8, addend: 0x0, symName: _glad_glWindowPos2sv, symObjAddr: 0x29B48, symBinAddr: 0x1000281A8, symSize: 0x0 }
  - { offsetInCU: 0x9C8, offset: 0x288B0, size: 0x8, addend: 0x0, symName: _glad_glVertexAttribP4ui, symObjAddr: 0x29B50, symBinAddr: 0x1000281B0, symSize: 0x0 }
  - { offsetInCU: 0xA18, offset: 0x28900, size: 0x8, addend: 0x0, symName: _glad_glCreateShader, symObjAddr: 0x29B58, symBinAddr: 0x1000281B8, symSize: 0x0 }
  - { offsetInCU: 0xA4B, offset: 0x28933, size: 0x8, addend: 0x0, symName: _glad_glIsBuffer, symObjAddr: 0x29B60, symBinAddr: 0x1000281C0, symSize: 0x0 }
  - { offsetInCU: 0xA7E, offset: 0x28966, size: 0x8, addend: 0x0, symName: _glad_glGetMultisamplefv, symObjAddr: 0x29B68, symBinAddr: 0x1000281C8, symSize: 0x0 }
  - { offsetInCU: 0xAB7, offset: 0x2899F, size: 0x8, addend: 0x0, symName: _glad_glGenRenderbuffers, symObjAddr: 0x29B70, symBinAddr: 0x1000281D0, symSize: 0x0 }
  - { offsetInCU: 0xAF0, offset: 0x289D8, size: 0x8, addend: 0x0, symName: _glad_glCopyTexSubImage2D, symObjAddr: 0x29B78, symBinAddr: 0x1000281D8, symSize: 0x0 }
  - { offsetInCU: 0xB42, offset: 0x28A2A, size: 0x8, addend: 0x0, symName: _glad_glCompressedTexImage2D, symObjAddr: 0x29B80, symBinAddr: 0x1000281E0, symSize: 0x0 }
  - { offsetInCU: 0xB94, offset: 0x28A7C, size: 0x8, addend: 0x0, symName: _glad_glVertexAttrib1f, symObjAddr: 0x29B88, symBinAddr: 0x1000281E8, symSize: 0x0 }
  - { offsetInCU: 0xBC8, offset: 0x28AB0, size: 0x8, addend: 0x0, symName: _glad_glBlendFuncSeparate, symObjAddr: 0x29B90, symBinAddr: 0x1000281F0, symSize: 0x0 }
  - { offsetInCU: 0xC06, offset: 0x28AEE, size: 0x8, addend: 0x0, symName: _glad_glVertex4fv, symObjAddr: 0x29B98, symBinAddr: 0x1000281F8, symSize: 0x0 }
  - { offsetInCU: 0xC29, offset: 0x28B11, size: 0x8, addend: 0x0, symName: _glad_glBindTexture, symObjAddr: 0x29BA0, symBinAddr: 0x100028200, symSize: 0x0 }
  - { offsetInCU: 0xC4C, offset: 0x28B34, size: 0x8, addend: 0x0, symName: _glad_glVertexAttrib1s, symObjAddr: 0x29BA8, symBinAddr: 0x100028208, symSize: 0x0 }
  - { offsetInCU: 0xC80, offset: 0x28B68, size: 0x8, addend: 0x0, symName: _glad_glTexCoord2fv, symObjAddr: 0x29BB0, symBinAddr: 0x100028210, symSize: 0x0 }
  - { offsetInCU: 0xCA3, offset: 0x28B8B, size: 0x8, addend: 0x0, symName: _glad_glSampleMaski, symObjAddr: 0x29BB8, symBinAddr: 0x100028218, symSize: 0x0 }
  - { offsetInCU: 0xCE2, offset: 0x28BCA, size: 0x8, addend: 0x0, symName: _glad_glVertexP2ui, symObjAddr: 0x29BC0, symBinAddr: 0x100028220, symSize: 0x0 }
  - { offsetInCU: 0xD05, offset: 0x28BED, size: 0x8, addend: 0x0, symName: _glad_glDrawRangeElementsBaseVertex, symObjAddr: 0x29BC8, symBinAddr: 0x100028228, symSize: 0x0 }
  - { offsetInCU: 0xD52, offset: 0x28C3A, size: 0x8, addend: 0x0, symName: _glad_glTexCoord4fv, symObjAddr: 0x29BD0, symBinAddr: 0x100028230, symSize: 0x0 }
  - { offsetInCU: 0xD75, offset: 0x28C5D, size: 0x8, addend: 0x0, symName: _glad_glUniformMatrix3x2fv, symObjAddr: 0x29BD8, symBinAddr: 0x100028238, symSize: 0x0 }
  - { offsetInCU: 0xDB3, offset: 0x28C9B, size: 0x8, addend: 0x0, symName: _glad_glPointSize, symObjAddr: 0x29BE0, symBinAddr: 0x100028240, symSize: 0x0 }
  - { offsetInCU: 0xDD6, offset: 0x28CBE, size: 0x8, addend: 0x0, symName: _glad_glVertexAttrib2dv, symObjAddr: 0x29BE8, symBinAddr: 0x100028248, symSize: 0x0 }
  - { offsetInCU: 0xE0A, offset: 0x28CF2, size: 0x8, addend: 0x0, symName: _glad_glDeleteProgram, symObjAddr: 0x29BF0, symBinAddr: 0x100028250, symSize: 0x0 }
  - { offsetInCU: 0xE2D, offset: 0x28D15, size: 0x8, addend: 0x0, symName: _glad_glColor4bv, symObjAddr: 0x29BF8, symBinAddr: 0x100028258, symSize: 0x0 }
  - { offsetInCU: 0xE78, offset: 0x28D60, size: 0x8, addend: 0x0, symName: _glad_glRasterPos2f, symObjAddr: 0x29C00, symBinAddr: 0x100028260, symSize: 0x0 }
  - { offsetInCU: 0xE9B, offset: 0x28D83, size: 0x8, addend: 0x0, symName: _glad_glRasterPos2d, symObjAddr: 0x29C08, symBinAddr: 0x100028268, symSize: 0x0 }
  - { offsetInCU: 0xEBE, offset: 0x28DA6, size: 0x8, addend: 0x0, symName: _glad_glLoadIdentity, symObjAddr: 0x29C10, symBinAddr: 0x100028270, symSize: 0x0 }
  - { offsetInCU: 0xEE7, offset: 0x28DCF, size: 0x8, addend: 0x0, symName: _glad_glRasterPos2i, symObjAddr: 0x29C18, symBinAddr: 0x100028278, symSize: 0x0 }
  - { offsetInCU: 0xF0A, offset: 0x28DF2, size: 0x8, addend: 0x0, symName: _glad_glRenderbufferStorage, symObjAddr: 0x29C20, symBinAddr: 0x100028280, symSize: 0x0 }
  - { offsetInCU: 0xF48, offset: 0x28E30, size: 0x8, addend: 0x0, symName: _glad_glUniformMatrix4x3fv, symObjAddr: 0x29C28, symBinAddr: 0x100028288, symSize: 0x0 }
  - { offsetInCU: 0xF6B, offset: 0x28E53, size: 0x8, addend: 0x0, symName: _glad_glColor3b, symObjAddr: 0x29C30, symBinAddr: 0x100028290, symSize: 0x0 }
  - { offsetInCU: 0xFA4, offset: 0x28E8C, size: 0x8, addend: 0x0, symName: _glad_glClearBufferfv, symObjAddr: 0x29C38, symBinAddr: 0x100028298, symSize: 0x0 }
  - { offsetInCU: 0xFDD, offset: 0x28EC5, size: 0x8, addend: 0x0, symName: _glad_glEdgeFlag, symObjAddr: 0x29C40, symBinAddr: 0x1000282A0, symSize: 0x0 }
  - { offsetInCU: 0x100C, offset: 0x28EF4, size: 0x8, addend: 0x0, symName: _glad_glDeleteSamplers, symObjAddr: 0x29C48, symBinAddr: 0x1000282A8, symSize: 0x0 }
  - { offsetInCU: 0x1040, offset: 0x28F28, size: 0x8, addend: 0x0, symName: _glad_glVertex3d, symObjAddr: 0x29C50, symBinAddr: 0x1000282B0, symSize: 0x0 }
  - { offsetInCU: 0x1079, offset: 0x28F61, size: 0x8, addend: 0x0, symName: _glad_glVertex3f, symObjAddr: 0x29C58, symBinAddr: 0x1000282B8, symSize: 0x0 }
  - { offsetInCU: 0x10B2, offset: 0x28F9A, size: 0x8, addend: 0x0, symName: _glad_glVertex3i, symObjAddr: 0x29C60, symBinAddr: 0x1000282C0, symSize: 0x0 }
  - { offsetInCU: 0x10EB, offset: 0x28FD3, size: 0x8, addend: 0x0, symName: _glad_glColor3i, symObjAddr: 0x29C68, symBinAddr: 0x1000282C8, symSize: 0x0 }
  - { offsetInCU: 0x110E, offset: 0x28FF6, size: 0x8, addend: 0x0, symName: _glad_glUniform3f, symObjAddr: 0x29C70, symBinAddr: 0x1000282D0, symSize: 0x0 }
  - { offsetInCU: 0x114C, offset: 0x29034, size: 0x8, addend: 0x0, symName: _glad_glVertexAttrib4ubv, symObjAddr: 0x29C78, symBinAddr: 0x1000282D8, symSize: 0x0 }
  - { offsetInCU: 0x1195, offset: 0x2907D, size: 0x8, addend: 0x0, symName: _glad_glColor3s, symObjAddr: 0x29C80, symBinAddr: 0x1000282E0, symSize: 0x0 }
  - { offsetInCU: 0x11CE, offset: 0x290B6, size: 0x8, addend: 0x0, symName: _glad_glVertex3s, symObjAddr: 0x29C88, symBinAddr: 0x1000282E8, symSize: 0x0 }
  - { offsetInCU: 0x11F1, offset: 0x290D9, size: 0x8, addend: 0x0, symName: _glad_glTexCoordP2ui, symObjAddr: 0x29C90, symBinAddr: 0x1000282F0, symSize: 0x0 }
  - { offsetInCU: 0x1214, offset: 0x290FC, size: 0x8, addend: 0x0, symName: _glad_glColorMaski, symObjAddr: 0x29C98, symBinAddr: 0x1000282F8, symSize: 0x0 }
  - { offsetInCU: 0x1257, offset: 0x2913F, size: 0x8, addend: 0x0, symName: _glad_glClearBufferfi, symObjAddr: 0x29CA0, symBinAddr: 0x100028300, symSize: 0x0 }
  - { offsetInCU: 0x1295, offset: 0x2917D, size: 0x8, addend: 0x0, symName: _glad_glTexCoord1iv, symObjAddr: 0x29CA8, symBinAddr: 0x100028308, symSize: 0x0 }
  - { offsetInCU: 0x12B8, offset: 0x291A0, size: 0x8, addend: 0x0, symName: _glad_glBlitFramebuffer, symObjAddr: 0x29CB0, symBinAddr: 0x100028310, symSize: 0x0 }
  - { offsetInCU: 0x1314, offset: 0x291FC, size: 0x8, addend: 0x0, symName: _glad_glMultiTexCoordP2ui, symObjAddr: 0x29CB8, symBinAddr: 0x100028318, symSize: 0x0 }
  - { offsetInCU: 0x1337, offset: 0x2921F, size: 0x8, addend: 0x0, symName: _glad_glGetSamplerParameterIiv, symObjAddr: 0x29CC0, symBinAddr: 0x100028320, symSize: 0x0 }
  - { offsetInCU: 0x1370, offset: 0x29258, size: 0x8, addend: 0x0, symName: _glad_glGetFragDataIndex, symObjAddr: 0x29CC8, symBinAddr: 0x100028328, symSize: 0x0 }
  - { offsetInCU: 0x13B2, offset: 0x2929A, size: 0x8, addend: 0x0, symName: _glad_glVertexAttrib3f, symObjAddr: 0x29CD0, symBinAddr: 0x100028330, symSize: 0x0 }
  - { offsetInCU: 0x13F0, offset: 0x292D8, size: 0x8, addend: 0x0, symName: _glad_glVertex2iv, symObjAddr: 0x29CD8, symBinAddr: 0x100028338, symSize: 0x0 }
  - { offsetInCU: 0x1413, offset: 0x292FB, size: 0x8, addend: 0x0, symName: _glad_glColor3sv, symObjAddr: 0x29CE0, symBinAddr: 0x100028340, symSize: 0x0 }
  - { offsetInCU: 0x1436, offset: 0x2931E, size: 0x8, addend: 0x0, symName: _glad_glGetVertexAttribdv, symObjAddr: 0x29CE8, symBinAddr: 0x100028348, symSize: 0x0 }
  - { offsetInCU: 0x1474, offset: 0x2935C, size: 0x8, addend: 0x0, symName: _glad_glUniformMatrix3x4fv, symObjAddr: 0x29CF0, symBinAddr: 0x100028350, symSize: 0x0 }
  - { offsetInCU: 0x1497, offset: 0x2937F, size: 0x8, addend: 0x0, symName: _glad_glNormalPointer, symObjAddr: 0x29CF8, symBinAddr: 0x100028358, symSize: 0x0 }
  - { offsetInCU: 0x14D0, offset: 0x293B8, size: 0x8, addend: 0x0, symName: _glad_glTexCoordP3uiv, symObjAddr: 0x29D00, symBinAddr: 0x100028360, symSize: 0x0 }
  - { offsetInCU: 0x14F3, offset: 0x293DB, size: 0x8, addend: 0x0, symName: _glad_glVertex4sv, symObjAddr: 0x29D08, symBinAddr: 0x100028368, symSize: 0x0 }
  - { offsetInCU: 0x1516, offset: 0x293FE, size: 0x8, addend: 0x0, symName: _glad_glPassThrough, symObjAddr: 0x29D10, symBinAddr: 0x100028370, symSize: 0x0 }
  - { offsetInCU: 0x1539, offset: 0x29421, size: 0x8, addend: 0x0, symName: _glad_glMultiTexCoordP4ui, symObjAddr: 0x29D18, symBinAddr: 0x100028378, symSize: 0x0 }
  - { offsetInCU: 0x155C, offset: 0x29444, size: 0x8, addend: 0x0, symName: _glad_glFogi, symObjAddr: 0x29D20, symBinAddr: 0x100028380, symSize: 0x0 }
  - { offsetInCU: 0x1590, offset: 0x29478, size: 0x8, addend: 0x0, symName: _glad_glBegin, symObjAddr: 0x29D28, symBinAddr: 0x100028388, symSize: 0x0 }
  - { offsetInCU: 0x15BF, offset: 0x294A7, size: 0x8, addend: 0x0, symName: _glad_glEvalCoord2dv, symObjAddr: 0x29D30, symBinAddr: 0x100028390, symSize: 0x0 }
  - { offsetInCU: 0x15EE, offset: 0x294D6, size: 0x8, addend: 0x0, symName: _glad_glColor3ubv, symObjAddr: 0x29D38, symBinAddr: 0x100028398, symSize: 0x0 }
  - { offsetInCU: 0x161D, offset: 0x29505, size: 0x8, addend: 0x0, symName: _glad_glVertexPointer, symObjAddr: 0x29D40, symBinAddr: 0x1000283A0, symSize: 0x0 }
  - { offsetInCU: 0x165B, offset: 0x29543, size: 0x8, addend: 0x0, symName: _glad_glSecondaryColor3uiv, symObjAddr: 0x29D48, symBinAddr: 0x1000283A8, symSize: 0x0 }
  - { offsetInCU: 0x168A, offset: 0x29572, size: 0x8, addend: 0x0, symName: _glad_glDeleteFramebuffers, symObjAddr: 0x29D50, symBinAddr: 0x1000283B0, symSize: 0x0 }
  - { offsetInCU: 0x16AD, offset: 0x29595, size: 0x8, addend: 0x0, symName: _glad_glDrawArrays, symObjAddr: 0x29D58, symBinAddr: 0x1000283B8, symSize: 0x0 }
  - { offsetInCU: 0x16E6, offset: 0x295CE, size: 0x8, addend: 0x0, symName: _glad_glUniform1ui, symObjAddr: 0x29D60, symBinAddr: 0x1000283C0, symSize: 0x0 }
  - { offsetInCU: 0x171A, offset: 0x29602, size: 0x8, addend: 0x0, symName: _glad_glMultiTexCoord1d, symObjAddr: 0x29D68, symBinAddr: 0x1000283C8, symSize: 0x0 }
  - { offsetInCU: 0x174E, offset: 0x29636, size: 0x8, addend: 0x0, symName: _glad_glMultiTexCoord1f, symObjAddr: 0x29D70, symBinAddr: 0x1000283D0, symSize: 0x0 }
  - { offsetInCU: 0x1782, offset: 0x2966A, size: 0x8, addend: 0x0, symName: _glad_glLightfv, symObjAddr: 0x29D78, symBinAddr: 0x1000283D8, symSize: 0x0 }
  - { offsetInCU: 0x17BB, offset: 0x296A3, size: 0x8, addend: 0x0, symName: _glad_glTexCoordP3ui, symObjAddr: 0x29D80, symBinAddr: 0x1000283E0, symSize: 0x0 }
  - { offsetInCU: 0x17DE, offset: 0x296C6, size: 0x8, addend: 0x0, symName: _glad_glVertexAttrib3d, symObjAddr: 0x29D88, symBinAddr: 0x1000283E8, symSize: 0x0 }
  - { offsetInCU: 0x181C, offset: 0x29704, size: 0x8, addend: 0x0, symName: _glad_glClear, symObjAddr: 0x29D90, symBinAddr: 0x1000283F0, symSize: 0x0 }
  - { offsetInCU: 0x184B, offset: 0x29733, size: 0x8, addend: 0x0, symName: _glad_glMultiTexCoord1i, symObjAddr: 0x29D98, symBinAddr: 0x1000283F8, symSize: 0x0 }
  - { offsetInCU: 0x186E, offset: 0x29756, size: 0x8, addend: 0x0, symName: _glad_glGetActiveUniformName, symObjAddr: 0x29DA0, symBinAddr: 0x100028400, symSize: 0x0 }
  - { offsetInCU: 0x18B1, offset: 0x29799, size: 0x8, addend: 0x0, symName: _glad_glMultiTexCoord1s, symObjAddr: 0x29DA8, symBinAddr: 0x100028408, symSize: 0x0 }
  - { offsetInCU: 0x18E5, offset: 0x297CD, size: 0x8, addend: 0x0, symName: _glad_glIsEnabled, symObjAddr: 0x29DB0, symBinAddr: 0x100028410, symSize: 0x0 }
  - { offsetInCU: 0x1918, offset: 0x29800, size: 0x8, addend: 0x0, symName: _glad_glStencilOp, symObjAddr: 0x29DB8, symBinAddr: 0x100028418, symSize: 0x0 }
  - { offsetInCU: 0x1951, offset: 0x29839, size: 0x8, addend: 0x0, symName: _glad_glGetQueryObjectuiv, symObjAddr: 0x29DC0, symBinAddr: 0x100028420, symSize: 0x0 }
  - { offsetInCU: 0x198A, offset: 0x29872, size: 0x8, addend: 0x0, symName: _glad_glFramebufferTexture2D, symObjAddr: 0x29DC8, symBinAddr: 0x100028428, symSize: 0x0 }
  - { offsetInCU: 0x19CD, offset: 0x298B5, size: 0x8, addend: 0x0, symName: _glad_glGetFramebufferAttachmentParameteriv, symObjAddr: 0x29DD0, symBinAddr: 0x100028430, symSize: 0x0 }
  - { offsetInCU: 0x1A0B, offset: 0x298F3, size: 0x8, addend: 0x0, symName: _glad_glTranslatef, symObjAddr: 0x29DD8, symBinAddr: 0x100028438, symSize: 0x0 }
  - { offsetInCU: 0x1A2E, offset: 0x29916, size: 0x8, addend: 0x0, symName: _glad_glVertexAttrib4Nub, symObjAddr: 0x29DE0, symBinAddr: 0x100028440, symSize: 0x0 }
  - { offsetInCU: 0x1A71, offset: 0x29959, size: 0x8, addend: 0x0, symName: _glad_glTranslated, symObjAddr: 0x29DE8, symBinAddr: 0x100028448, symSize: 0x0 }
  - { offsetInCU: 0x1A94, offset: 0x2997C, size: 0x8, addend: 0x0, symName: _glad_glTexCoord3sv, symObjAddr: 0x29DF0, symBinAddr: 0x100028450, symSize: 0x0 }
  - { offsetInCU: 0x1AB7, offset: 0x2999F, size: 0x8, addend: 0x0, symName: _glad_glGetFragDataLocation, symObjAddr: 0x29DF8, symBinAddr: 0x100028458, symSize: 0x0 }
  - { offsetInCU: 0x1ADA, offset: 0x299C2, size: 0x8, addend: 0x0, symName: _glad_glTexImage1D, symObjAddr: 0x29E00, symBinAddr: 0x100028460, symSize: 0x0 }
  - { offsetInCU: 0x1B2C, offset: 0x29A14, size: 0x8, addend: 0x0, symName: _glad_glVertexP3uiv, symObjAddr: 0x29E08, symBinAddr: 0x100028468, symSize: 0x0 }
  - { offsetInCU: 0x1B4F, offset: 0x29A37, size: 0x8, addend: 0x0, symName: _glad_glTexParameteriv, symObjAddr: 0x29E10, symBinAddr: 0x100028470, symSize: 0x0 }
  - { offsetInCU: 0x1B88, offset: 0x29A70, size: 0x8, addend: 0x0, symName: _glad_glSecondaryColor3bv, symObjAddr: 0x29E18, symBinAddr: 0x100028478, symSize: 0x0 }
  - { offsetInCU: 0x1BAB, offset: 0x29A93, size: 0x8, addend: 0x0, symName: _glad_glGetMaterialfv, symObjAddr: 0x29E20, symBinAddr: 0x100028480, symSize: 0x0 }
  - { offsetInCU: 0x1BCE, offset: 0x29AB6, size: 0x8, addend: 0x0, symName: _glad_glGetTexImage, symObjAddr: 0x29E28, symBinAddr: 0x100028488, symSize: 0x0 }
  - { offsetInCU: 0x1C12, offset: 0x29AFA, size: 0x8, addend: 0x0, symName: _glad_glFogCoordfv, symObjAddr: 0x29E30, symBinAddr: 0x100028490, symSize: 0x0 }
  - { offsetInCU: 0x1C35, offset: 0x29B1D, size: 0x8, addend: 0x0, symName: _glad_glPixelMapuiv, symObjAddr: 0x29E38, symBinAddr: 0x100028498, symSize: 0x0 }
  - { offsetInCU: 0x1C6E, offset: 0x29B56, size: 0x8, addend: 0x0, symName: _glad_glGetShaderInfoLog, symObjAddr: 0x29E40, symBinAddr: 0x1000284A0, symSize: 0x0 }
  - { offsetInCU: 0x1CAC, offset: 0x29B94, size: 0x8, addend: 0x0, symName: _glad_glGetQueryObjecti64v, symObjAddr: 0x29E48, symBinAddr: 0x1000284A8, symSize: 0x0 }
  - { offsetInCU: 0x1CFC, offset: 0x29BE4, size: 0x8, addend: 0x0, symName: _glad_glGenFramebuffers, symObjAddr: 0x29E50, symBinAddr: 0x1000284B0, symSize: 0x0 }
  - { offsetInCU: 0x1D1F, offset: 0x29C07, size: 0x8, addend: 0x0, symName: _glad_glIndexsv, symObjAddr: 0x29E58, symBinAddr: 0x1000284B8, symSize: 0x0 }
  - { offsetInCU: 0x1D42, offset: 0x29C2A, size: 0x8, addend: 0x0, symName: _glad_glGetAttachedShaders, symObjAddr: 0x29E60, symBinAddr: 0x1000284C0, symSize: 0x0 }
  - { offsetInCU: 0x1D80, offset: 0x29C68, size: 0x8, addend: 0x0, symName: _glad_glIsRenderbuffer, symObjAddr: 0x29E68, symBinAddr: 0x1000284C8, symSize: 0x0 }
  - { offsetInCU: 0x1DA3, offset: 0x29C8B, size: 0x8, addend: 0x0, symName: _glad_glVertex3iv, symObjAddr: 0x29E70, symBinAddr: 0x1000284D0, symSize: 0x0 }
  - { offsetInCU: 0x1DC6, offset: 0x29CAE, size: 0x8, addend: 0x0, symName: _glad_glBitmap, symObjAddr: 0x29E78, symBinAddr: 0x1000284D8, symSize: 0x0 }
  - { offsetInCU: 0x1E13, offset: 0x29CFB, size: 0x8, addend: 0x0, symName: _glad_glMateriali, symObjAddr: 0x29E80, symBinAddr: 0x1000284E0, symSize: 0x0 }
  - { offsetInCU: 0x1E4C, offset: 0x29D34, size: 0x8, addend: 0x0, symName: _glad_glIsVertexArray, symObjAddr: 0x29E88, symBinAddr: 0x1000284E8, symSize: 0x0 }
  - { offsetInCU: 0x1E6F, offset: 0x29D57, size: 0x8, addend: 0x0, symName: _glad_glDisableVertexAttribArray, symObjAddr: 0x29E90, symBinAddr: 0x1000284F0, symSize: 0x0 }
  - { offsetInCU: 0x1E92, offset: 0x29D7A, size: 0x8, addend: 0x0, symName: _glad_glGetQueryiv, symObjAddr: 0x29E98, symBinAddr: 0x1000284F8, symSize: 0x0 }
  - { offsetInCU: 0x1ECB, offset: 0x29DB3, size: 0x8, addend: 0x0, symName: _glad_glTexCoord4f, symObjAddr: 0x29EA0, symBinAddr: 0x100028500, symSize: 0x0 }
  - { offsetInCU: 0x1F09, offset: 0x29DF1, size: 0x8, addend: 0x0, symName: _glad_glTexCoord4d, symObjAddr: 0x29EA8, symBinAddr: 0x100028508, symSize: 0x0 }
  - { offsetInCU: 0x1F47, offset: 0x29E2F, size: 0x8, addend: 0x0, symName: _glad_glGetSamplerParameterfv, symObjAddr: 0x29EB0, symBinAddr: 0x100028510, symSize: 0x0 }
  - { offsetInCU: 0x1F80, offset: 0x29E68, size: 0x8, addend: 0x0, symName: _glad_glTexCoord4i, symObjAddr: 0x29EB8, symBinAddr: 0x100028518, symSize: 0x0 }
  - { offsetInCU: 0x1FBE, offset: 0x29EA6, size: 0x8, addend: 0x0, symName: _glad_glMaterialf, symObjAddr: 0x29EC0, symBinAddr: 0x100028520, symSize: 0x0 }
  - { offsetInCU: 0x1FF7, offset: 0x29EDF, size: 0x8, addend: 0x0, symName: _glad_glTexCoord4s, symObjAddr: 0x29EC8, symBinAddr: 0x100028528, symSize: 0x0 }
  - { offsetInCU: 0x2035, offset: 0x29F1D, size: 0x8, addend: 0x0, symName: _glad_glGetUniformIndices, symObjAddr: 0x29ED0, symBinAddr: 0x100028530, symSize: 0x0 }
  - { offsetInCU: 0x207D, offset: 0x29F65, size: 0x8, addend: 0x0, symName: _glad_glIsShader, symObjAddr: 0x29ED8, symBinAddr: 0x100028538, symSize: 0x0 }
  - { offsetInCU: 0x20A0, offset: 0x29F88, size: 0x8, addend: 0x0, symName: _glad_glMultiTexCoord2s, symObjAddr: 0x29EE0, symBinAddr: 0x100028540, symSize: 0x0 }
  - { offsetInCU: 0x20D9, offset: 0x29FC1, size: 0x8, addend: 0x0, symName: _glad_glVertexAttribI4ubv, symObjAddr: 0x29EE8, symBinAddr: 0x100028548, symSize: 0x0 }
  - { offsetInCU: 0x20FC, offset: 0x29FE4, size: 0x8, addend: 0x0, symName: _glad_glVertex3dv, symObjAddr: 0x29EF0, symBinAddr: 0x100028550, symSize: 0x0 }
  - { offsetInCU: 0x211F, offset: 0x2A007, size: 0x8, addend: 0x0, symName: _glad_glGetInteger64v, symObjAddr: 0x29EF8, symBinAddr: 0x100028558, symSize: 0x0 }
  - { offsetInCU: 0x2153, offset: 0x2A03B, size: 0x8, addend: 0x0, symName: _glad_glPointParameteriv, symObjAddr: 0x29F00, symBinAddr: 0x100028560, symSize: 0x0 }
  - { offsetInCU: 0x2176, offset: 0x2A05E, size: 0x8, addend: 0x0, symName: _glad_glEnable, symObjAddr: 0x29F08, symBinAddr: 0x100028568, symSize: 0x0 }
  - { offsetInCU: 0x2199, offset: 0x2A081, size: 0x8, addend: 0x0, symName: _glad_glGetActiveUniformsiv, symObjAddr: 0x29F10, symBinAddr: 0x100028570, symSize: 0x0 }
  - { offsetInCU: 0x21DC, offset: 0x2A0C4, size: 0x8, addend: 0x0, symName: _glad_glColor4fv, symObjAddr: 0x29F18, symBinAddr: 0x100028578, symSize: 0x0 }
  - { offsetInCU: 0x21FF, offset: 0x2A0E7, size: 0x8, addend: 0x0, symName: _glad_glTexCoord1fv, symObjAddr: 0x29F20, symBinAddr: 0x100028580, symSize: 0x0 }
  - { offsetInCU: 0x2222, offset: 0x2A10A, size: 0x8, addend: 0x0, symName: _glad_glTexCoord2sv, symObjAddr: 0x29F28, symBinAddr: 0x100028588, symSize: 0x0 }
  - { offsetInCU: 0x2245, offset: 0x2A12D, size: 0x8, addend: 0x0, symName: _glad_glVertexAttrib4dv, symObjAddr: 0x29F30, symBinAddr: 0x100028590, symSize: 0x0 }
  - { offsetInCU: 0x2268, offset: 0x2A150, size: 0x8, addend: 0x0, symName: _glad_glMultiTexCoord1dv, symObjAddr: 0x29F38, symBinAddr: 0x100028598, symSize: 0x0 }
  - { offsetInCU: 0x229C, offset: 0x2A184, size: 0x8, addend: 0x0, symName: _glad_glMultiTexCoord2i, symObjAddr: 0x29F40, symBinAddr: 0x1000285A0, symSize: 0x0 }
  - { offsetInCU: 0x22D5, offset: 0x2A1BD, size: 0x8, addend: 0x0, symName: _glad_glTexCoord3fv, symObjAddr: 0x29F48, symBinAddr: 0x1000285A8, symSize: 0x0 }
  - { offsetInCU: 0x22F8, offset: 0x2A1E0, size: 0x8, addend: 0x0, symName: _glad_glSecondaryColor3usv, symObjAddr: 0x29F50, symBinAddr: 0x1000285B0, symSize: 0x0 }
  - { offsetInCU: 0x2343, offset: 0x2A22B, size: 0x8, addend: 0x0, symName: _glad_glTexGenf, symObjAddr: 0x29F58, symBinAddr: 0x1000285B8, symSize: 0x0 }
  - { offsetInCU: 0x2366, offset: 0x2A24E, size: 0x8, addend: 0x0, symName: _glad_glMultiTexCoordP3uiv, symObjAddr: 0x29F60, symBinAddr: 0x1000285C0, symSize: 0x0 }
  - { offsetInCU: 0x239F, offset: 0x2A287, size: 0x8, addend: 0x0, symName: _glad_glVertexAttribP3ui, symObjAddr: 0x29F68, symBinAddr: 0x1000285C8, symSize: 0x0 }
  - { offsetInCU: 0x23C2, offset: 0x2A2AA, size: 0x8, addend: 0x0, symName: _glad_glMultiTexCoordP1ui, symObjAddr: 0x29F70, symBinAddr: 0x1000285D0, symSize: 0x0 }
  - { offsetInCU: 0x23E5, offset: 0x2A2CD, size: 0x8, addend: 0x0, symName: _glad_glGetPointerv, symObjAddr: 0x29F78, symBinAddr: 0x1000285D8, symSize: 0x0 }
  - { offsetInCU: 0x241E, offset: 0x2A306, size: 0x8, addend: 0x0, symName: _glad_glPolygonOffset, symObjAddr: 0x29F80, symBinAddr: 0x1000285E0, symSize: 0x0 }
  - { offsetInCU: 0x2441, offset: 0x2A329, size: 0x8, addend: 0x0, symName: _glad_glGetUniformuiv, symObjAddr: 0x29F88, symBinAddr: 0x1000285E8, symSize: 0x0 }
  - { offsetInCU: 0x247A, offset: 0x2A362, size: 0x8, addend: 0x0, symName: _glad_glNormal3fv, symObjAddr: 0x29F90, symBinAddr: 0x1000285F0, symSize: 0x0 }
  - { offsetInCU: 0x249D, offset: 0x2A385, size: 0x8, addend: 0x0, symName: _glad_glSecondaryColor3s, symObjAddr: 0x29F98, symBinAddr: 0x1000285F8, symSize: 0x0 }
  - { offsetInCU: 0x24C0, offset: 0x2A3A8, size: 0x8, addend: 0x0, symName: _glad_glDepthRange, symObjAddr: 0x29FA0, symBinAddr: 0x100028600, symSize: 0x0 }
  - { offsetInCU: 0x24E3, offset: 0x2A3CB, size: 0x8, addend: 0x0, symName: _glad_glFrustum, symObjAddr: 0x29FA8, symBinAddr: 0x100028608, symSize: 0x0 }
  - { offsetInCU: 0x252B, offset: 0x2A413, size: 0x8, addend: 0x0, symName: _glad_glMultiTexCoord4sv, symObjAddr: 0x29FB0, symBinAddr: 0x100028610, symSize: 0x0 }
  - { offsetInCU: 0x255F, offset: 0x2A447, size: 0x8, addend: 0x0, symName: _glad_glDrawBuffer, symObjAddr: 0x29FB8, symBinAddr: 0x100028618, symSize: 0x0 }
  - { offsetInCU: 0x2582, offset: 0x2A46A, size: 0x8, addend: 0x0, symName: _glad_glPushMatrix, symObjAddr: 0x29FC0, symBinAddr: 0x100028620, symSize: 0x0 }
  - { offsetInCU: 0x25A5, offset: 0x2A48D, size: 0x8, addend: 0x0, symName: _glad_glRasterPos3fv, symObjAddr: 0x29FC8, symBinAddr: 0x100028628, symSize: 0x0 }
  - { offsetInCU: 0x25C8, offset: 0x2A4B0, size: 0x8, addend: 0x0, symName: _glad_glOrtho, symObjAddr: 0x29FD0, symBinAddr: 0x100028630, symSize: 0x0 }
  - { offsetInCU: 0x25EB, offset: 0x2A4D3, size: 0x8, addend: 0x0, symName: _glad_glDrawElementsInstanced, symObjAddr: 0x29FD8, symBinAddr: 0x100028638, symSize: 0x0 }
  - { offsetInCU: 0x262E, offset: 0x2A516, size: 0x8, addend: 0x0, symName: _glad_glWindowPos3sv, symObjAddr: 0x29FE0, symBinAddr: 0x100028640, symSize: 0x0 }
  - { offsetInCU: 0x2651, offset: 0x2A539, size: 0x8, addend: 0x0, symName: _glad_glClearIndex, symObjAddr: 0x29FE8, symBinAddr: 0x100028648, symSize: 0x0 }
  - { offsetInCU: 0x2674, offset: 0x2A55C, size: 0x8, addend: 0x0, symName: _glad_glMap1d, symObjAddr: 0x29FF0, symBinAddr: 0x100028650, symSize: 0x0 }
  - { offsetInCU: 0x26BC, offset: 0x2A5A4, size: 0x8, addend: 0x0, symName: _glad_glMap1f, symObjAddr: 0x29FF8, symBinAddr: 0x100028658, symSize: 0x0 }
  - { offsetInCU: 0x2704, offset: 0x2A5EC, size: 0x8, addend: 0x0, symName: _glad_glFlush, symObjAddr: 0x2A000, symBinAddr: 0x100028660, symSize: 0x0 }
  - { offsetInCU: 0x2727, offset: 0x2A60F, size: 0x8, addend: 0x0, symName: _glad_glGetRenderbufferParameteriv, symObjAddr: 0x2A008, symBinAddr: 0x100028668, symSize: 0x0 }
  - { offsetInCU: 0x274A, offset: 0x2A632, size: 0x8, addend: 0x0, symName: _glad_glIndexiv, symObjAddr: 0x2A010, symBinAddr: 0x100028670, symSize: 0x0 }
  - { offsetInCU: 0x276D, offset: 0x2A655, size: 0x8, addend: 0x0, symName: _glad_glRasterPos3sv, symObjAddr: 0x2A018, symBinAddr: 0x100028678, symSize: 0x0 }
  - { offsetInCU: 0x2790, offset: 0x2A678, size: 0x8, addend: 0x0, symName: _glad_glGetVertexAttribPointerv, symObjAddr: 0x2A020, symBinAddr: 0x100028680, symSize: 0x0 }
  - { offsetInCU: 0x27C9, offset: 0x2A6B1, size: 0x8, addend: 0x0, symName: _glad_glPixelZoom, symObjAddr: 0x2A028, symBinAddr: 0x100028688, symSize: 0x0 }
  - { offsetInCU: 0x27EC, offset: 0x2A6D4, size: 0x8, addend: 0x0, symName: _glad_glFenceSync, symObjAddr: 0x2A030, symBinAddr: 0x100028690, symSize: 0x0 }
  - { offsetInCU: 0x2839, offset: 0x2A721, size: 0x8, addend: 0x0, symName: _glad_glDeleteVertexArrays, symObjAddr: 0x2A038, symBinAddr: 0x100028698, symSize: 0x0 }
  - { offsetInCU: 0x285C, offset: 0x2A744, size: 0x8, addend: 0x0, symName: _glad_glColorP3ui, symObjAddr: 0x2A040, symBinAddr: 0x1000286A0, symSize: 0x0 }
  - { offsetInCU: 0x287F, offset: 0x2A767, size: 0x8, addend: 0x0, symName: _glad_glVertexAttrib3sv, symObjAddr: 0x2A048, symBinAddr: 0x1000286A8, symSize: 0x0 }
  - { offsetInCU: 0x28A2, offset: 0x2A78A, size: 0x8, addend: 0x0, symName: _glad_glBeginConditionalRender, symObjAddr: 0x2A050, symBinAddr: 0x1000286B0, symSize: 0x0 }
  - { offsetInCU: 0x28D6, offset: 0x2A7BE, size: 0x8, addend: 0x0, symName: _glad_glDrawElementsBaseVertex, symObjAddr: 0x2A058, symBinAddr: 0x1000286B8, symSize: 0x0 }
  - { offsetInCU: 0x2919, offset: 0x2A801, size: 0x8, addend: 0x0, symName: _glad_glGetTexLevelParameteriv, symObjAddr: 0x2A060, symBinAddr: 0x1000286C0, symSize: 0x0 }
  - { offsetInCU: 0x2957, offset: 0x2A83F, size: 0x8, addend: 0x0, symName: _glad_glLighti, symObjAddr: 0x2A068, symBinAddr: 0x1000286C8, symSize: 0x0 }
  - { offsetInCU: 0x297A, offset: 0x2A862, size: 0x8, addend: 0x0, symName: _glad_glMultiTexCoordP4uiv, symObjAddr: 0x2A070, symBinAddr: 0x1000286D0, symSize: 0x0 }
  - { offsetInCU: 0x299D, offset: 0x2A885, size: 0x8, addend: 0x0, symName: _glad_glLightf, symObjAddr: 0x2A078, symBinAddr: 0x1000286D8, symSize: 0x0 }
  - { offsetInCU: 0x29C0, offset: 0x2A8A8, size: 0x8, addend: 0x0, symName: _glad_glGetAttribLocation, symObjAddr: 0x2A080, symBinAddr: 0x1000286E0, symSize: 0x0 }
  - { offsetInCU: 0x29E3, offset: 0x2A8CB, size: 0x8, addend: 0x0, symName: _glad_glStencilFuncSeparate, symObjAddr: 0x2A088, symBinAddr: 0x1000286E8, symSize: 0x0 }
  - { offsetInCU: 0x2A21, offset: 0x2A909, size: 0x8, addend: 0x0, symName: _glad_glGenSamplers, symObjAddr: 0x2A090, symBinAddr: 0x1000286F0, symSize: 0x0 }
  - { offsetInCU: 0x2A44, offset: 0x2A92C, size: 0x8, addend: 0x0, symName: _glad_glClampColor, symObjAddr: 0x2A098, symBinAddr: 0x1000286F8, symSize: 0x0 }
  - { offsetInCU: 0x2A78, offset: 0x2A960, size: 0x8, addend: 0x0, symName: _glad_glUniform4iv, symObjAddr: 0x2A0A0, symBinAddr: 0x100028700, symSize: 0x0 }
  - { offsetInCU: 0x2AB1, offset: 0x2A999, size: 0x8, addend: 0x0, symName: _glad_glClearStencil, symObjAddr: 0x2A0A8, symBinAddr: 0x100028708, symSize: 0x0 }
  - { offsetInCU: 0x2AD4, offset: 0x2A9BC, size: 0x8, addend: 0x0, symName: _glad_glTexCoordP1uiv, symObjAddr: 0x2A0B0, symBinAddr: 0x100028710, symSize: 0x0 }
  - { offsetInCU: 0x2AF7, offset: 0x2A9DF, size: 0x8, addend: 0x0, symName: _glad_glMultiTexCoord3fv, symObjAddr: 0x2A0B8, symBinAddr: 0x100028718, symSize: 0x0 }
  - { offsetInCU: 0x2B1A, offset: 0x2AA02, size: 0x8, addend: 0x0, symName: _glad_glGetPixelMapuiv, symObjAddr: 0x2A0C0, symBinAddr: 0x100028720, symSize: 0x0 }
  - { offsetInCU: 0x2B4E, offset: 0x2AA36, size: 0x8, addend: 0x0, symName: _glad_glGenTextures, symObjAddr: 0x2A0C8, symBinAddr: 0x100028728, symSize: 0x0 }
  - { offsetInCU: 0x2B71, offset: 0x2AA59, size: 0x8, addend: 0x0, symName: _glad_glTexCoord4iv, symObjAddr: 0x2A0D0, symBinAddr: 0x100028730, symSize: 0x0 }
  - { offsetInCU: 0x2B94, offset: 0x2AA7C, size: 0x8, addend: 0x0, symName: _glad_glGetTexParameterIuiv, symObjAddr: 0x2A0D8, symBinAddr: 0x100028738, symSize: 0x0 }
  - { offsetInCU: 0x2BCD, offset: 0x2AAB5, size: 0x8, addend: 0x0, symName: _glad_glIndexPointer, symObjAddr: 0x2A0E0, symBinAddr: 0x100028740, symSize: 0x0 }
  - { offsetInCU: 0x2BF0, offset: 0x2AAD8, size: 0x8, addend: 0x0, symName: _glad_glVertexAttrib4Nbv, symObjAddr: 0x2A0E8, symBinAddr: 0x100028748, symSize: 0x0 }
  - { offsetInCU: 0x2C24, offset: 0x2AB0C, size: 0x8, addend: 0x0, symName: _glad_glIsSync, symObjAddr: 0x2A0F0, symBinAddr: 0x100028750, symSize: 0x0 }
  - { offsetInCU: 0x2C57, offset: 0x2AB3F, size: 0x8, addend: 0x0, symName: _glad_glVertex2f, symObjAddr: 0x2A0F8, symBinAddr: 0x100028758, symSize: 0x0 }
  - { offsetInCU: 0x2C7A, offset: 0x2AB62, size: 0x8, addend: 0x0, symName: _glad_glVertex2d, symObjAddr: 0x2A100, symBinAddr: 0x100028760, symSize: 0x0 }
  - { offsetInCU: 0x2C9D, offset: 0x2AB85, size: 0x8, addend: 0x0, symName: _glad_glDeleteRenderbuffers, symObjAddr: 0x2A108, symBinAddr: 0x100028768, symSize: 0x0 }
  - { offsetInCU: 0x2CC0, offset: 0x2ABA8, size: 0x8, addend: 0x0, symName: _glad_glUniform2i, symObjAddr: 0x2A110, symBinAddr: 0x100028770, symSize: 0x0 }
  - { offsetInCU: 0x2CE3, offset: 0x2ABCB, size: 0x8, addend: 0x0, symName: _glad_glMapGrid2d, symObjAddr: 0x2A118, symBinAddr: 0x100028778, symSize: 0x0 }
  - { offsetInCU: 0x2D2B, offset: 0x2AC13, size: 0x8, addend: 0x0, symName: _glad_glMapGrid2f, symObjAddr: 0x2A120, symBinAddr: 0x100028780, symSize: 0x0 }
  - { offsetInCU: 0x2D73, offset: 0x2AC5B, size: 0x8, addend: 0x0, symName: _glad_glTexCoordP4ui, symObjAddr: 0x2A128, symBinAddr: 0x100028788, symSize: 0x0 }
  - { offsetInCU: 0x2D96, offset: 0x2AC7E, size: 0x8, addend: 0x0, symName: _glad_glVertex2i, symObjAddr: 0x2A130, symBinAddr: 0x100028790, symSize: 0x0 }
  - { offsetInCU: 0x2DB9, offset: 0x2ACA1, size: 0x8, addend: 0x0, symName: _glad_glVertexAttribPointer, symObjAddr: 0x2A138, symBinAddr: 0x100028798, symSize: 0x0 }
  - { offsetInCU: 0x2E01, offset: 0x2ACE9, size: 0x8, addend: 0x0, symName: _glad_glFramebufferTextureLayer, symObjAddr: 0x2A140, symBinAddr: 0x1000287A0, symSize: 0x0 }
  - { offsetInCU: 0x2E44, offset: 0x2AD2C, size: 0x8, addend: 0x0, symName: _glad_glVertex2s, symObjAddr: 0x2A148, symBinAddr: 0x1000287A8, symSize: 0x0 }
  - { offsetInCU: 0x2E67, offset: 0x2AD4F, size: 0x8, addend: 0x0, symName: _glad_glNormal3bv, symObjAddr: 0x2A150, symBinAddr: 0x1000287B0, symSize: 0x0 }
  - { offsetInCU: 0x2E8A, offset: 0x2AD72, size: 0x8, addend: 0x0, symName: _glad_glVertexAttrib4Nuiv, symObjAddr: 0x2A158, symBinAddr: 0x1000287B8, symSize: 0x0 }
  - { offsetInCU: 0x2EBE, offset: 0x2ADA6, size: 0x8, addend: 0x0, symName: _glad_glFlushMappedBufferRange, symObjAddr: 0x2A160, symBinAddr: 0x1000287C0, symSize: 0x0 }
  - { offsetInCU: 0x2F14, offset: 0x2ADFC, size: 0x8, addend: 0x0, symName: _glad_glSecondaryColor3sv, symObjAddr: 0x2A168, symBinAddr: 0x1000287C8, symSize: 0x0 }
  - { offsetInCU: 0x2F37, offset: 0x2AE1F, size: 0x8, addend: 0x0, symName: _glad_glVertex3sv, symObjAddr: 0x2A170, symBinAddr: 0x1000287D0, symSize: 0x0 }
  - { offsetInCU: 0x2F5A, offset: 0x2AE42, size: 0x8, addend: 0x0, symName: _glad_glGenQueries, symObjAddr: 0x2A178, symBinAddr: 0x1000287D8, symSize: 0x0 }
  - { offsetInCU: 0x2F7D, offset: 0x2AE65, size: 0x8, addend: 0x0, symName: _glad_glGetPixelMapfv, symObjAddr: 0x2A180, symBinAddr: 0x1000287E0, symSize: 0x0 }
  - { offsetInCU: 0x2FB1, offset: 0x2AE99, size: 0x8, addend: 0x0, symName: _glad_glTexEnvf, symObjAddr: 0x2A188, symBinAddr: 0x1000287E8, symSize: 0x0 }
  - { offsetInCU: 0x2FD4, offset: 0x2AEBC, size: 0x8, addend: 0x0, symName: _glad_glVertexAttribP1ui, symObjAddr: 0x2A190, symBinAddr: 0x1000287F0, symSize: 0x0 }
  - { offsetInCU: 0x2FF7, offset: 0x2AEDF, size: 0x8, addend: 0x0, symName: _glad_glTexSubImage3D, symObjAddr: 0x2A198, symBinAddr: 0x1000287F8, symSize: 0x0 }
  - { offsetInCU: 0x3058, offset: 0x2AF40, size: 0x8, addend: 0x0, symName: _glad_glGetInteger64i_v, symObjAddr: 0x2A1A0, symBinAddr: 0x100028800, symSize: 0x0 }
  - { offsetInCU: 0x3091, offset: 0x2AF79, size: 0x8, addend: 0x0, symName: _glad_glFogCoordd, symObjAddr: 0x2A1A8, symBinAddr: 0x100028808, symSize: 0x0 }
  - { offsetInCU: 0x30B4, offset: 0x2AF9C, size: 0x8, addend: 0x0, symName: _glad_glFogCoordf, symObjAddr: 0x2A1B0, symBinAddr: 0x100028810, symSize: 0x0 }
  - { offsetInCU: 0x30D7, offset: 0x2AFBF, size: 0x8, addend: 0x0, symName: _glad_glCopyTexImage2D, symObjAddr: 0x2A1B8, symBinAddr: 0x100028818, symSize: 0x0 }
  - { offsetInCU: 0x3129, offset: 0x2B011, size: 0x8, addend: 0x0, symName: _glad_glTexEnvi, symObjAddr: 0x2A1C0, symBinAddr: 0x100028820, symSize: 0x0 }
  - { offsetInCU: 0x314C, offset: 0x2B034, size: 0x8, addend: 0x0, symName: _glad_glMultiTexCoord1iv, symObjAddr: 0x2A1C8, symBinAddr: 0x100028828, symSize: 0x0 }
  - { offsetInCU: 0x316F, offset: 0x2B057, size: 0x8, addend: 0x0, symName: _glad_glIsEnabledi, symObjAddr: 0x2A1D0, symBinAddr: 0x100028830, symSize: 0x0 }
  - { offsetInCU: 0x31A7, offset: 0x2B08F, size: 0x8, addend: 0x0, symName: _glad_glSecondaryColorP3ui, symObjAddr: 0x2A1D8, symBinAddr: 0x100028838, symSize: 0x0 }
  - { offsetInCU: 0x31CA, offset: 0x2B0B2, size: 0x8, addend: 0x0, symName: _glad_glVertexAttribI2i, symObjAddr: 0x2A1E0, symBinAddr: 0x100028840, symSize: 0x0 }
  - { offsetInCU: 0x3203, offset: 0x2B0EB, size: 0x8, addend: 0x0, symName: _glad_glBindFragDataLocationIndexed, symObjAddr: 0x2A1E8, symBinAddr: 0x100028848, symSize: 0x0 }
  - { offsetInCU: 0x3241, offset: 0x2B129, size: 0x8, addend: 0x0, symName: _glad_glMultiTexCoord2dv, symObjAddr: 0x2A1F0, symBinAddr: 0x100028850, symSize: 0x0 }
  - { offsetInCU: 0x3264, offset: 0x2B14C, size: 0x8, addend: 0x0, symName: _glad_glUniform2iv, symObjAddr: 0x2A1F8, symBinAddr: 0x100028858, symSize: 0x0 }
  - { offsetInCU: 0x3287, offset: 0x2B16F, size: 0x8, addend: 0x0, symName: _glad_glVertexAttrib1fv, symObjAddr: 0x2A200, symBinAddr: 0x100028860, symSize: 0x0 }
  - { offsetInCU: 0x32BB, offset: 0x2B1A3, size: 0x8, addend: 0x0, symName: _glad_glUniform4uiv, symObjAddr: 0x2A208, symBinAddr: 0x100028868, symSize: 0x0 }
  - { offsetInCU: 0x32F4, offset: 0x2B1DC, size: 0x8, addend: 0x0, symName: _glad_glMatrixMode, symObjAddr: 0x2A210, symBinAddr: 0x100028870, symSize: 0x0 }
  - { offsetInCU: 0x3317, offset: 0x2B1FF, size: 0x8, addend: 0x0, symName: _glad_glFeedbackBuffer, symObjAddr: 0x2A218, symBinAddr: 0x100028878, symSize: 0x0 }
  - { offsetInCU: 0x3350, offset: 0x2B238, size: 0x8, addend: 0x0, symName: _glad_glGetMapiv, symObjAddr: 0x2A220, symBinAddr: 0x100028880, symSize: 0x0 }
  - { offsetInCU: 0x3373, offset: 0x2B25B, size: 0x8, addend: 0x0, symName: _glad_glFramebufferTexture1D, symObjAddr: 0x2A228, symBinAddr: 0x100028888, symSize: 0x0 }
  - { offsetInCU: 0x3396, offset: 0x2B27E, size: 0x8, addend: 0x0, symName: _glad_glGetShaderiv, symObjAddr: 0x2A230, symBinAddr: 0x100028890, symSize: 0x0 }
  - { offsetInCU: 0x33B9, offset: 0x2B2A1, size: 0x8, addend: 0x0, symName: _glad_glMultiTexCoord2d, symObjAddr: 0x2A238, symBinAddr: 0x100028898, symSize: 0x0 }
  - { offsetInCU: 0x33F2, offset: 0x2B2DA, size: 0x8, addend: 0x0, symName: _glad_glMultiTexCoord2f, symObjAddr: 0x2A240, symBinAddr: 0x1000288A0, symSize: 0x0 }
  - { offsetInCU: 0x342B, offset: 0x2B313, size: 0x8, addend: 0x0, symName: _glad_glBindFragDataLocation, symObjAddr: 0x2A248, symBinAddr: 0x1000288A8, symSize: 0x0 }
  - { offsetInCU: 0x3464, offset: 0x2B34C, size: 0x8, addend: 0x0, symName: _glad_glPrioritizeTextures, symObjAddr: 0x2A250, symBinAddr: 0x1000288B0, symSize: 0x0 }
  - { offsetInCU: 0x349D, offset: 0x2B385, size: 0x8, addend: 0x0, symName: _glad_glCallList, symObjAddr: 0x2A258, symBinAddr: 0x1000288B8, symSize: 0x0 }
  - { offsetInCU: 0x34C0, offset: 0x2B3A8, size: 0x8, addend: 0x0, symName: _glad_glSecondaryColor3ubv, symObjAddr: 0x2A260, symBinAddr: 0x1000288C0, symSize: 0x0 }
  - { offsetInCU: 0x34E3, offset: 0x2B3CB, size: 0x8, addend: 0x0, symName: _glad_glGetDoublev, symObjAddr: 0x2A268, symBinAddr: 0x1000288C8, symSize: 0x0 }
  - { offsetInCU: 0x3517, offset: 0x2B3FF, size: 0x8, addend: 0x0, symName: _glad_glMultiTexCoord3iv, symObjAddr: 0x2A270, symBinAddr: 0x1000288D0, symSize: 0x0 }
  - { offsetInCU: 0x353A, offset: 0x2B422, size: 0x8, addend: 0x0, symName: _glad_glVertexAttrib1d, symObjAddr: 0x2A278, symBinAddr: 0x1000288D8, symSize: 0x0 }
  - { offsetInCU: 0x356E, offset: 0x2B456, size: 0x8, addend: 0x0, symName: _glad_glLightModelf, symObjAddr: 0x2A280, symBinAddr: 0x1000288E0, symSize: 0x0 }
  - { offsetInCU: 0x3591, offset: 0x2B479, size: 0x8, addend: 0x0, symName: _glad_glGetUniformiv, symObjAddr: 0x2A288, symBinAddr: 0x1000288E8, symSize: 0x0 }
  - { offsetInCU: 0x35CA, offset: 0x2B4B2, size: 0x8, addend: 0x0, symName: _glad_glVertex2sv, symObjAddr: 0x2A290, symBinAddr: 0x1000288F0, symSize: 0x0 }
  - { offsetInCU: 0x35ED, offset: 0x2B4D5, size: 0x8, addend: 0x0, symName: _glad_glLightModeli, symObjAddr: 0x2A298, symBinAddr: 0x1000288F8, symSize: 0x0 }
  - { offsetInCU: 0x3610, offset: 0x2B4F8, size: 0x8, addend: 0x0, symName: _glad_glWindowPos3iv, symObjAddr: 0x2A2A0, symBinAddr: 0x100028900, symSize: 0x0 }
  - { offsetInCU: 0x3633, offset: 0x2B51B, size: 0x8, addend: 0x0, symName: _glad_glMultiTexCoordP1uiv, symObjAddr: 0x2A2A8, symBinAddr: 0x100028908, symSize: 0x0 }
  - { offsetInCU: 0x3656, offset: 0x2B53E, size: 0x8, addend: 0x0, symName: _glad_glUniform3fv, symObjAddr: 0x2A2B0, symBinAddr: 0x100028910, symSize: 0x0 }
  - { offsetInCU: 0x368F, offset: 0x2B577, size: 0x8, addend: 0x0, symName: _glad_glPixelStorei, symObjAddr: 0x2A2B8, symBinAddr: 0x100028918, symSize: 0x0 }
  - { offsetInCU: 0x36B2, offset: 0x2B59A, size: 0x8, addend: 0x0, symName: _glad_glCallLists, symObjAddr: 0x2A2C0, symBinAddr: 0x100028920, symSize: 0x0 }
  - { offsetInCU: 0x36EB, offset: 0x2B5D3, size: 0x8, addend: 0x0, symName: _glad_glMapBuffer, symObjAddr: 0x2A2C8, symBinAddr: 0x100028928, symSize: 0x0 }
  - { offsetInCU: 0x3723, offset: 0x2B60B, size: 0x8, addend: 0x0, symName: _glad_glSecondaryColor3d, symObjAddr: 0x2A2D0, symBinAddr: 0x100028930, symSize: 0x0 }
  - { offsetInCU: 0x3746, offset: 0x2B62E, size: 0x8, addend: 0x0, symName: _glad_glTexCoord3i, symObjAddr: 0x2A2D8, symBinAddr: 0x100028938, symSize: 0x0 }
  - { offsetInCU: 0x3769, offset: 0x2B651, size: 0x8, addend: 0x0, symName: _glad_glMultiTexCoord4fv, symObjAddr: 0x2A2E0, symBinAddr: 0x100028940, symSize: 0x0 }
  - { offsetInCU: 0x378C, offset: 0x2B674, size: 0x8, addend: 0x0, symName: _glad_glRasterPos3i, symObjAddr: 0x2A2E8, symBinAddr: 0x100028948, symSize: 0x0 }
  - { offsetInCU: 0x37AF, offset: 0x2B697, size: 0x8, addend: 0x0, symName: _glad_glSecondaryColor3b, symObjAddr: 0x2A2F0, symBinAddr: 0x100028950, symSize: 0x0 }
  - { offsetInCU: 0x37D2, offset: 0x2B6BA, size: 0x8, addend: 0x0, symName: _glad_glRasterPos3d, symObjAddr: 0x2A2F8, symBinAddr: 0x100028958, symSize: 0x0 }
  - { offsetInCU: 0x37F5, offset: 0x2B6DD, size: 0x8, addend: 0x0, symName: _glad_glRasterPos3f, symObjAddr: 0x2A300, symBinAddr: 0x100028960, symSize: 0x0 }
  - { offsetInCU: 0x3818, offset: 0x2B700, size: 0x8, addend: 0x0, symName: _glad_glCompressedTexImage3D, symObjAddr: 0x2A308, symBinAddr: 0x100028968, symSize: 0x0 }
  - { offsetInCU: 0x386F, offset: 0x2B757, size: 0x8, addend: 0x0, symName: _glad_glTexCoord3f, symObjAddr: 0x2A310, symBinAddr: 0x100028970, symSize: 0x0 }
  - { offsetInCU: 0x3892, offset: 0x2B77A, size: 0x8, addend: 0x0, symName: _glad_glDeleteSync, symObjAddr: 0x2A318, symBinAddr: 0x100028978, symSize: 0x0 }
  - { offsetInCU: 0x38C1, offset: 0x2B7A9, size: 0x8, addend: 0x0, symName: _glad_glTexCoord3d, symObjAddr: 0x2A320, symBinAddr: 0x100028980, symSize: 0x0 }
  - { offsetInCU: 0x38E4, offset: 0x2B7CC, size: 0x8, addend: 0x0, symName: _glad_glTexImage2DMultisample, symObjAddr: 0x2A328, symBinAddr: 0x100028988, symSize: 0x0 }
  - { offsetInCU: 0x392C, offset: 0x2B814, size: 0x8, addend: 0x0, symName: _glad_glGetVertexAttribiv, symObjAddr: 0x2A330, symBinAddr: 0x100028990, symSize: 0x0 }
  - { offsetInCU: 0x394F, offset: 0x2B837, size: 0x8, addend: 0x0, symName: _glad_glMultiDrawElements, symObjAddr: 0x2A338, symBinAddr: 0x100028998, symSize: 0x0 }
  - { offsetInCU: 0x39A6, offset: 0x2B88E, size: 0x8, addend: 0x0, symName: _glad_glVertexAttrib3fv, symObjAddr: 0x2A340, symBinAddr: 0x1000289A0, symSize: 0x0 }
  - { offsetInCU: 0x39C9, offset: 0x2B8B1, size: 0x8, addend: 0x0, symName: _glad_glTexCoord3s, symObjAddr: 0x2A348, symBinAddr: 0x1000289A8, symSize: 0x0 }
  - { offsetInCU: 0x39EC, offset: 0x2B8D4, size: 0x8, addend: 0x0, symName: _glad_glUniform3iv, symObjAddr: 0x2A350, symBinAddr: 0x1000289B0, symSize: 0x0 }
  - { offsetInCU: 0x3A0F, offset: 0x2B8F7, size: 0x8, addend: 0x0, symName: _glad_glRasterPos3s, symObjAddr: 0x2A358, symBinAddr: 0x1000289B8, symSize: 0x0 }
  - { offsetInCU: 0x3A32, offset: 0x2B91A, size: 0x8, addend: 0x0, symName: _glad_glPolygonMode, symObjAddr: 0x2A360, symBinAddr: 0x1000289C0, symSize: 0x0 }
  - { offsetInCU: 0x3A55, offset: 0x2B93D, size: 0x8, addend: 0x0, symName: _glad_glDrawBuffers, symObjAddr: 0x2A368, symBinAddr: 0x1000289C8, symSize: 0x0 }
  - { offsetInCU: 0x3A93, offset: 0x2B97B, size: 0x8, addend: 0x0, symName: _glad_glGetActiveUniformBlockiv, symObjAddr: 0x2A370, symBinAddr: 0x1000289D0, symSize: 0x0 }
  - { offsetInCU: 0x3AD1, offset: 0x2B9B9, size: 0x8, addend: 0x0, symName: _glad_glAreTexturesResident, symObjAddr: 0x2A378, symBinAddr: 0x1000289D8, symSize: 0x0 }
  - { offsetInCU: 0x3B13, offset: 0x2B9FB, size: 0x8, addend: 0x0, symName: _glad_glIsList, symObjAddr: 0x2A380, symBinAddr: 0x1000289E0, symSize: 0x0 }
  - { offsetInCU: 0x3B36, offset: 0x2BA1E, size: 0x8, addend: 0x0, symName: _glad_glRasterPos2sv, symObjAddr: 0x2A388, symBinAddr: 0x1000289E8, symSize: 0x0 }
  - { offsetInCU: 0x3B59, offset: 0x2BA41, size: 0x8, addend: 0x0, symName: _glad_glRasterPos4sv, symObjAddr: 0x2A390, symBinAddr: 0x1000289F0, symSize: 0x0 }
  - { offsetInCU: 0x3B7C, offset: 0x2BA64, size: 0x8, addend: 0x0, symName: _glad_glColor4s, symObjAddr: 0x2A398, symBinAddr: 0x1000289F8, symSize: 0x0 }
  - { offsetInCU: 0x3B9F, offset: 0x2BA87, size: 0x8, addend: 0x0, symName: _glad_glUseProgram, symObjAddr: 0x2A3A0, symBinAddr: 0x100028A00, symSize: 0x0 }
  - { offsetInCU: 0x3BC2, offset: 0x2BAAA, size: 0x8, addend: 0x0, symName: _glad_glLineStipple, symObjAddr: 0x2A3A8, symBinAddr: 0x100028A08, symSize: 0x0 }
  - { offsetInCU: 0x3BF6, offset: 0x2BADE, size: 0x8, addend: 0x0, symName: _glad_glMultiTexCoord1sv, symObjAddr: 0x2A3B0, symBinAddr: 0x100028A10, symSize: 0x0 }
  - { offsetInCU: 0x3C19, offset: 0x2BB01, size: 0x8, addend: 0x0, symName: _glad_glGetProgramInfoLog, symObjAddr: 0x2A3B8, symBinAddr: 0x100028A18, symSize: 0x0 }
  - { offsetInCU: 0x3C3C, offset: 0x2BB24, size: 0x8, addend: 0x0, symName: _glad_glGetBufferParameteriv, symObjAddr: 0x2A3C0, symBinAddr: 0x100028A20, symSize: 0x0 }
  - { offsetInCU: 0x3C5F, offset: 0x2BB47, size: 0x8, addend: 0x0, symName: _glad_glMultiTexCoord2iv, symObjAddr: 0x2A3C8, symBinAddr: 0x100028A28, symSize: 0x0 }
  - { offsetInCU: 0x3C82, offset: 0x2BB6A, size: 0x8, addend: 0x0, symName: _glad_glUniformMatrix2x4fv, symObjAddr: 0x2A3D0, symBinAddr: 0x100028A30, symSize: 0x0 }
  - { offsetInCU: 0x3CA5, offset: 0x2BB8D, size: 0x8, addend: 0x0, symName: _glad_glBindVertexArray, symObjAddr: 0x2A3D8, symBinAddr: 0x100028A38, symSize: 0x0 }
  - { offsetInCU: 0x3CC8, offset: 0x2BBB0, size: 0x8, addend: 0x0, symName: _glad_glColor4b, symObjAddr: 0x2A3E0, symBinAddr: 0x100028A40, symSize: 0x0 }
  - { offsetInCU: 0x3D06, offset: 0x2BBEE, size: 0x8, addend: 0x0, symName: _glad_glSecondaryColor3f, symObjAddr: 0x2A3E8, symBinAddr: 0x100028A48, symSize: 0x0 }
  - { offsetInCU: 0x3D29, offset: 0x2BC11, size: 0x8, addend: 0x0, symName: _glad_glColor4f, symObjAddr: 0x2A3F0, symBinAddr: 0x100028A50, symSize: 0x0 }
  - { offsetInCU: 0x3D4C, offset: 0x2BC34, size: 0x8, addend: 0x0, symName: _glad_glColor4d, symObjAddr: 0x2A3F8, symBinAddr: 0x100028A58, symSize: 0x0 }
  - { offsetInCU: 0x3D6F, offset: 0x2BC57, size: 0x8, addend: 0x0, symName: _glad_glColor4i, symObjAddr: 0x2A400, symBinAddr: 0x100028A60, symSize: 0x0 }
  - { offsetInCU: 0x3D92, offset: 0x2BC7A, size: 0x8, addend: 0x0, symName: _glad_glSamplerParameterIiv, symObjAddr: 0x2A408, symBinAddr: 0x100028A68, symSize: 0x0 }
  - { offsetInCU: 0x3DCB, offset: 0x2BCB3, size: 0x8, addend: 0x0, symName: _glad_glMultiDrawElementsBaseVertex, symObjAddr: 0x2A410, symBinAddr: 0x100028A70, symSize: 0x0 }
  - { offsetInCU: 0x3E13, offset: 0x2BCFB, size: 0x8, addend: 0x0, symName: _glad_glRasterPos3iv, symObjAddr: 0x2A418, symBinAddr: 0x100028A78, symSize: 0x0 }
  - { offsetInCU: 0x3E36, offset: 0x2BD1E, size: 0x8, addend: 0x0, symName: _glad_glVertex2dv, symObjAddr: 0x2A420, symBinAddr: 0x100028A80, symSize: 0x0 }
  - { offsetInCU: 0x3E59, offset: 0x2BD41, size: 0x8, addend: 0x0, symName: _glad_glTexCoord4sv, symObjAddr: 0x2A428, symBinAddr: 0x100028A88, symSize: 0x0 }
  - { offsetInCU: 0x3E7C, offset: 0x2BD64, size: 0x8, addend: 0x0, symName: _glad_glUniform2uiv, symObjAddr: 0x2A430, symBinAddr: 0x100028A90, symSize: 0x0 }
  - { offsetInCU: 0x3E9F, offset: 0x2BD87, size: 0x8, addend: 0x0, symName: _glad_glCompressedTexSubImage1D, symObjAddr: 0x2A438, symBinAddr: 0x100028A98, symSize: 0x0 }
  - { offsetInCU: 0x3EEC, offset: 0x2BDD4, size: 0x8, addend: 0x0, symName: _glad_glFinish, symObjAddr: 0x2A440, symBinAddr: 0x100028AA0, symSize: 0x0 }
  - { offsetInCU: 0x3F0F, offset: 0x2BDF7, size: 0x8, addend: 0x0, symName: _glad_glGetBooleanv, symObjAddr: 0x2A448, symBinAddr: 0x100028AA8, symSize: 0x0 }
  - { offsetInCU: 0x3F43, offset: 0x2BE2B, size: 0x8, addend: 0x0, symName: _glad_glDeleteShader, symObjAddr: 0x2A450, symBinAddr: 0x100028AB0, symSize: 0x0 }
  - { offsetInCU: 0x3F66, offset: 0x2BE4E, size: 0x8, addend: 0x0, symName: _glad_glDrawElements, symObjAddr: 0x2A458, symBinAddr: 0x100028AB8, symSize: 0x0 }
  - { offsetInCU: 0x3FA4, offset: 0x2BE8C, size: 0x8, addend: 0x0, symName: _glad_glRasterPos2s, symObjAddr: 0x2A460, symBinAddr: 0x100028AC0, symSize: 0x0 }
  - { offsetInCU: 0x3FC7, offset: 0x2BEAF, size: 0x8, addend: 0x0, symName: _glad_glGetMapdv, symObjAddr: 0x2A468, symBinAddr: 0x100028AC8, symSize: 0x0 }
  - { offsetInCU: 0x4000, offset: 0x2BEE8, size: 0x8, addend: 0x0, symName: _glad_glVertexAttrib4Nsv, symObjAddr: 0x2A470, symBinAddr: 0x100028AD0, symSize: 0x0 }
  - { offsetInCU: 0x4023, offset: 0x2BF0B, size: 0x8, addend: 0x0, symName: _glad_glMaterialfv, symObjAddr: 0x2A478, symBinAddr: 0x100028AD8, symSize: 0x0 }
  - { offsetInCU: 0x4046, offset: 0x2BF2E, size: 0x8, addend: 0x0, symName: _glad_glViewport, symObjAddr: 0x2A480, symBinAddr: 0x100028AE0, symSize: 0x0 }
  - { offsetInCU: 0x4084, offset: 0x2BF6C, size: 0x8, addend: 0x0, symName: _glad_glUniform1uiv, symObjAddr: 0x2A488, symBinAddr: 0x100028AE8, symSize: 0x0 }
  - { offsetInCU: 0x40A7, offset: 0x2BF8F, size: 0x8, addend: 0x0, symName: _glad_glTransformFeedbackVaryings, symObjAddr: 0x2A490, symBinAddr: 0x100028AF0, symSize: 0x0 }
  - { offsetInCU: 0x40E5, offset: 0x2BFCD, size: 0x8, addend: 0x0, symName: _glad_glIndexdv, symObjAddr: 0x2A498, symBinAddr: 0x100028AF8, symSize: 0x0 }
  - { offsetInCU: 0x4108, offset: 0x2BFF0, size: 0x8, addend: 0x0, symName: _glad_glCopyTexSubImage3D, symObjAddr: 0x2A4A0, symBinAddr: 0x100028B00, symSize: 0x0 }
  - { offsetInCU: 0x415F, offset: 0x2C047, size: 0x8, addend: 0x0, symName: _glad_glTexCoord3iv, symObjAddr: 0x2A4A8, symBinAddr: 0x100028B08, symSize: 0x0 }
  - { offsetInCU: 0x4182, offset: 0x2C06A, size: 0x8, addend: 0x0, symName: _glad_glVertexAttribI3i, symObjAddr: 0x2A4B0, symBinAddr: 0x100028B10, symSize: 0x0 }
  - { offsetInCU: 0x41C0, offset: 0x2C0A8, size: 0x8, addend: 0x0, symName: _glad_glClearDepth, symObjAddr: 0x2A4B8, symBinAddr: 0x100028B18, symSize: 0x0 }
  - { offsetInCU: 0x41E3, offset: 0x2C0CB, size: 0x8, addend: 0x0, symName: _glad_glVertexAttribI4usv, symObjAddr: 0x2A4C0, symBinAddr: 0x100028B20, symSize: 0x0 }
  - { offsetInCU: 0x4217, offset: 0x2C0FF, size: 0x8, addend: 0x0, symName: _glad_glTexParameterf, symObjAddr: 0x2A4C8, symBinAddr: 0x100028B28, symSize: 0x0 }
  - { offsetInCU: 0x423A, offset: 0x2C122, size: 0x8, addend: 0x0, symName: _glad_glTexParameteri, symObjAddr: 0x2A4D0, symBinAddr: 0x100028B30, symSize: 0x0 }
  - { offsetInCU: 0x425D, offset: 0x2C145, size: 0x8, addend: 0x0, symName: _glad_glGetShaderSource, symObjAddr: 0x2A4D8, symBinAddr: 0x100028B38, symSize: 0x0 }
  - { offsetInCU: 0x4280, offset: 0x2C168, size: 0x8, addend: 0x0, symName: _glad_glTexBuffer, symObjAddr: 0x2A4E0, symBinAddr: 0x100028B40, symSize: 0x0 }
  - { offsetInCU: 0x42A3, offset: 0x2C18B, size: 0x8, addend: 0x0, symName: _glad_glPopName, symObjAddr: 0x2A4E8, symBinAddr: 0x100028B48, symSize: 0x0 }
  - { offsetInCU: 0x42C6, offset: 0x2C1AE, size: 0x8, addend: 0x0, symName: _glad_glValidateProgram, symObjAddr: 0x2A4F0, symBinAddr: 0x100028B50, symSize: 0x0 }
  - { offsetInCU: 0x42E9, offset: 0x2C1D1, size: 0x8, addend: 0x0, symName: _glad_glPixelStoref, symObjAddr: 0x2A4F8, symBinAddr: 0x100028B58, symSize: 0x0 }
  - { offsetInCU: 0x430C, offset: 0x2C1F4, size: 0x8, addend: 0x0, symName: _glad_glUniform3uiv, symObjAddr: 0x2A500, symBinAddr: 0x100028B60, symSize: 0x0 }
  - { offsetInCU: 0x432F, offset: 0x2C217, size: 0x8, addend: 0x0, symName: _glad_glRasterPos4fv, symObjAddr: 0x2A508, symBinAddr: 0x100028B68, symSize: 0x0 }
  - { offsetInCU: 0x4352, offset: 0x2C23A, size: 0x8, addend: 0x0, symName: _glad_glEvalCoord1dv, symObjAddr: 0x2A510, symBinAddr: 0x100028B70, symSize: 0x0 }
  - { offsetInCU: 0x4375, offset: 0x2C25D, size: 0x8, addend: 0x0, symName: _glad_glMultiTexCoordP2uiv, symObjAddr: 0x2A518, symBinAddr: 0x100028B78, symSize: 0x0 }
  - { offsetInCU: 0x4398, offset: 0x2C280, size: 0x8, addend: 0x0, symName: _glad_glRecti, symObjAddr: 0x2A520, symBinAddr: 0x100028B80, symSize: 0x0 }
  - { offsetInCU: 0x43BB, offset: 0x2C2A3, size: 0x8, addend: 0x0, symName: _glad_glColor4ub, symObjAddr: 0x2A528, symBinAddr: 0x100028B88, symSize: 0x0 }
  - { offsetInCU: 0x43F9, offset: 0x2C2E1, size: 0x8, addend: 0x0, symName: _glad_glMultTransposeMatrixf, symObjAddr: 0x2A530, symBinAddr: 0x100028B90, symSize: 0x0 }
  - { offsetInCU: 0x441C, offset: 0x2C304, size: 0x8, addend: 0x0, symName: _glad_glRectf, symObjAddr: 0x2A538, symBinAddr: 0x100028B98, symSize: 0x0 }
  - { offsetInCU: 0x443F, offset: 0x2C327, size: 0x8, addend: 0x0, symName: _glad_glRectd, symObjAddr: 0x2A540, symBinAddr: 0x100028BA0, symSize: 0x0 }
  - { offsetInCU: 0x4462, offset: 0x2C34A, size: 0x8, addend: 0x0, symName: _glad_glNormal3sv, symObjAddr: 0x2A548, symBinAddr: 0x100028BA8, symSize: 0x0 }
  - { offsetInCU: 0x4485, offset: 0x2C36D, size: 0x8, addend: 0x0, symName: _glad_glNewList, symObjAddr: 0x2A550, symBinAddr: 0x100028BB0, symSize: 0x0 }
  - { offsetInCU: 0x44A8, offset: 0x2C390, size: 0x8, addend: 0x0, symName: _glad_glColor4us, symObjAddr: 0x2A558, symBinAddr: 0x100028BB8, symSize: 0x0 }
  - { offsetInCU: 0x44E6, offset: 0x2C3CE, size: 0x8, addend: 0x0, symName: _glad_glVertexAttribP1uiv, symObjAddr: 0x2A560, symBinAddr: 0x100028BC0, symSize: 0x0 }
  - { offsetInCU: 0x4524, offset: 0x2C40C, size: 0x8, addend: 0x0, symName: _glad_glLinkProgram, symObjAddr: 0x2A568, symBinAddr: 0x100028BC8, symSize: 0x0 }
  - { offsetInCU: 0x4547, offset: 0x2C42F, size: 0x8, addend: 0x0, symName: _glad_glHint, symObjAddr: 0x2A570, symBinAddr: 0x100028BD0, symSize: 0x0 }
  - { offsetInCU: 0x456A, offset: 0x2C452, size: 0x8, addend: 0x0, symName: _glad_glRects, symObjAddr: 0x2A578, symBinAddr: 0x100028BD8, symSize: 0x0 }
  - { offsetInCU: 0x458D, offset: 0x2C475, size: 0x8, addend: 0x0, symName: _glad_glTexCoord2dv, symObjAddr: 0x2A580, symBinAddr: 0x100028BE0, symSize: 0x0 }
  - { offsetInCU: 0x45B0, offset: 0x2C498, size: 0x8, addend: 0x0, symName: _glad_glRasterPos4iv, symObjAddr: 0x2A588, symBinAddr: 0x100028BE8, symSize: 0x0 }
  - { offsetInCU: 0x45D3, offset: 0x2C4BB, size: 0x8, addend: 0x0, symName: _glad_glGetString, symObjAddr: 0x2A590, symBinAddr: 0x100028BF0, symSize: 0x0 }
  - { offsetInCU: 0x4606, offset: 0x2C4EE, size: 0x8, addend: 0x0, symName: _glad_glVertexAttribP2uiv, symObjAddr: 0x2A598, symBinAddr: 0x100028BF8, symSize: 0x0 }
  - { offsetInCU: 0x4629, offset: 0x2C511, size: 0x8, addend: 0x0, symName: _glad_glEdgeFlagv, symObjAddr: 0x2A5A0, symBinAddr: 0x100028C00, symSize: 0x0 }
  - { offsetInCU: 0x4662, offset: 0x2C54A, size: 0x8, addend: 0x0, symName: _glad_glDetachShader, symObjAddr: 0x2A5A8, symBinAddr: 0x100028C08, symSize: 0x0 }
  - { offsetInCU: 0x4685, offset: 0x2C56D, size: 0x8, addend: 0x0, symName: _glad_glScalef, symObjAddr: 0x2A5B0, symBinAddr: 0x100028C10, symSize: 0x0 }
  - { offsetInCU: 0x46A8, offset: 0x2C590, size: 0x8, addend: 0x0, symName: _glad_glEndQuery, symObjAddr: 0x2A5B8, symBinAddr: 0x100028C18, symSize: 0x0 }
  - { offsetInCU: 0x46CB, offset: 0x2C5B3, size: 0x8, addend: 0x0, symName: _glad_glScaled, symObjAddr: 0x2A5C0, symBinAddr: 0x100028C20, symSize: 0x0 }
  - { offsetInCU: 0x46EE, offset: 0x2C5D6, size: 0x8, addend: 0x0, symName: _glad_glEdgeFlagPointer, symObjAddr: 0x2A5C8, symBinAddr: 0x100028C28, symSize: 0x0 }
  - { offsetInCU: 0x4722, offset: 0x2C60A, size: 0x8, addend: 0x0, symName: _glad_glCopyPixels, symObjAddr: 0x2A5D0, symBinAddr: 0x100028C30, symSize: 0x0 }
  - { offsetInCU: 0x4765, offset: 0x2C64D, size: 0x8, addend: 0x0, symName: _glad_glVertexAttribI2ui, symObjAddr: 0x2A5D8, symBinAddr: 0x100028C38, symSize: 0x0 }
  - { offsetInCU: 0x479E, offset: 0x2C686, size: 0x8, addend: 0x0, symName: _glad_glPopAttrib, symObjAddr: 0x2A5E0, symBinAddr: 0x100028C40, symSize: 0x0 }
  - { offsetInCU: 0x47C1, offset: 0x2C6A9, size: 0x8, addend: 0x0, symName: _glad_glDeleteTextures, symObjAddr: 0x2A5E8, symBinAddr: 0x100028C48, symSize: 0x0 }
  - { offsetInCU: 0x47E4, offset: 0x2C6CC, size: 0x8, addend: 0x0, symName: _glad_glStencilOpSeparate, symObjAddr: 0x2A5F0, symBinAddr: 0x100028C50, symSize: 0x0 }
  - { offsetInCU: 0x4807, offset: 0x2C6EF, size: 0x8, addend: 0x0, symName: _glad_glDeleteQueries, symObjAddr: 0x2A5F8, symBinAddr: 0x100028C58, symSize: 0x0 }
  - { offsetInCU: 0x482A, offset: 0x2C712, size: 0x8, addend: 0x0, symName: _glad_glNormalP3uiv, symObjAddr: 0x2A600, symBinAddr: 0x100028C60, symSize: 0x0 }
  - { offsetInCU: 0x484D, offset: 0x2C735, size: 0x8, addend: 0x0, symName: _glad_glVertexAttrib4f, symObjAddr: 0x2A608, symBinAddr: 0x100028C68, symSize: 0x0 }
  - { offsetInCU: 0x4890, offset: 0x2C778, size: 0x8, addend: 0x0, symName: _glad_glVertexAttrib4d, symObjAddr: 0x2A610, symBinAddr: 0x100028C70, symSize: 0x0 }
  - { offsetInCU: 0x48D3, offset: 0x2C7BB, size: 0x8, addend: 0x0, symName: _glad_glInitNames, symObjAddr: 0x2A618, symBinAddr: 0x100028C78, symSize: 0x0 }
  - { offsetInCU: 0x48F6, offset: 0x2C7DE, size: 0x8, addend: 0x0, symName: _glad_glGetBufferParameteri64v, symObjAddr: 0x2A620, symBinAddr: 0x100028C80, symSize: 0x0 }
  - { offsetInCU: 0x492F, offset: 0x2C817, size: 0x8, addend: 0x0, symName: _glad_glColor3dv, symObjAddr: 0x2A628, symBinAddr: 0x100028C88, symSize: 0x0 }
  - { offsetInCU: 0x4952, offset: 0x2C83A, size: 0x8, addend: 0x0, symName: _glad_glVertexAttribI1i, symObjAddr: 0x2A630, symBinAddr: 0x100028C90, symSize: 0x0 }
  - { offsetInCU: 0x4986, offset: 0x2C86E, size: 0x8, addend: 0x0, symName: _glad_glGetTexParameteriv, symObjAddr: 0x2A638, symBinAddr: 0x100028C98, symSize: 0x0 }
  - { offsetInCU: 0x49A9, offset: 0x2C891, size: 0x8, addend: 0x0, symName: _glad_glWaitSync, symObjAddr: 0x2A640, symBinAddr: 0x100028CA0, symSize: 0x0 }
  - { offsetInCU: 0x49F4, offset: 0x2C8DC, size: 0x8, addend: 0x0, symName: _glad_glVertexAttrib4s, symObjAddr: 0x2A648, symBinAddr: 0x100028CA8, symSize: 0x0 }
  - { offsetInCU: 0x4A37, offset: 0x2C91F, size: 0x8, addend: 0x0, symName: _glad_glColorMaterial, symObjAddr: 0x2A650, symBinAddr: 0x100028CB0, symSize: 0x0 }
  - { offsetInCU: 0x4A5A, offset: 0x2C942, size: 0x8, addend: 0x0, symName: _glad_glSampleCoverage, symObjAddr: 0x2A658, symBinAddr: 0x100028CB8, symSize: 0x0 }
  - { offsetInCU: 0x4A8E, offset: 0x2C976, size: 0x8, addend: 0x0, symName: _glad_glSamplerParameteri, symObjAddr: 0x2A660, symBinAddr: 0x100028CC0, symSize: 0x0 }
  - { offsetInCU: 0x4AC7, offset: 0x2C9AF, size: 0x8, addend: 0x0, symName: _glad_glSamplerParameterf, symObjAddr: 0x2A668, symBinAddr: 0x100028CC8, symSize: 0x0 }
  - { offsetInCU: 0x4B00, offset: 0x2C9E8, size: 0x8, addend: 0x0, symName: _glad_glUniform1f, symObjAddr: 0x2A670, symBinAddr: 0x100028CD0, symSize: 0x0 }
  - { offsetInCU: 0x4B34, offset: 0x2CA1C, size: 0x8, addend: 0x0, symName: _glad_glGetVertexAttribfv, symObjAddr: 0x2A678, symBinAddr: 0x100028CD8, symSize: 0x0 }
  - { offsetInCU: 0x4B57, offset: 0x2CA3F, size: 0x8, addend: 0x0, symName: _glad_glRenderMode, symObjAddr: 0x2A680, symBinAddr: 0x100028CE0, symSize: 0x0 }
  - { offsetInCU: 0x4B8A, offset: 0x2CA72, size: 0x8, addend: 0x0, symName: _glad_glGetCompressedTexImage, symObjAddr: 0x2A688, symBinAddr: 0x100028CE8, symSize: 0x0 }
  - { offsetInCU: 0x4BC3, offset: 0x2CAAB, size: 0x8, addend: 0x0, symName: _glad_glWindowPos2dv, symObjAddr: 0x2A690, symBinAddr: 0x100028CF0, symSize: 0x0 }
  - { offsetInCU: 0x4BE6, offset: 0x2CACE, size: 0x8, addend: 0x0, symName: _glad_glUniform1i, symObjAddr: 0x2A698, symBinAddr: 0x100028CF8, symSize: 0x0 }
  - { offsetInCU: 0x4C09, offset: 0x2CAF1, size: 0x8, addend: 0x0, symName: _glad_glGetActiveAttrib, symObjAddr: 0x2A6A0, symBinAddr: 0x100028D00, symSize: 0x0 }
  - { offsetInCU: 0x4C56, offset: 0x2CB3E, size: 0x8, addend: 0x0, symName: _glad_glUniform3i, symObjAddr: 0x2A6A8, symBinAddr: 0x100028D08, symSize: 0x0 }
  - { offsetInCU: 0x4C79, offset: 0x2CB61, size: 0x8, addend: 0x0, symName: _glad_glPixelTransferi, symObjAddr: 0x2A6B0, symBinAddr: 0x100028D10, symSize: 0x0 }
  - { offsetInCU: 0x4C9C, offset: 0x2CB84, size: 0x8, addend: 0x0, symName: _glad_glTexSubImage2D, symObjAddr: 0x2A6B8, symBinAddr: 0x100028D18, symSize: 0x0 }
  - { offsetInCU: 0x4CF3, offset: 0x2CBDB, size: 0x8, addend: 0x0, symName: _glad_glDisable, symObjAddr: 0x2A6C0, symBinAddr: 0x100028D20, symSize: 0x0 }
  - { offsetInCU: 0x4D16, offset: 0x2CBFE, size: 0x8, addend: 0x0, symName: _glad_glLogicOp, symObjAddr: 0x2A6C8, symBinAddr: 0x100028D28, symSize: 0x0 }
  - { offsetInCU: 0x4D39, offset: 0x2CC21, size: 0x8, addend: 0x0, symName: _glad_glEvalPoint2, symObjAddr: 0x2A6D0, symBinAddr: 0x100028D30, symSize: 0x0 }
  - { offsetInCU: 0x4D5C, offset: 0x2CC44, size: 0x8, addend: 0x0, symName: _glad_glPixelTransferf, symObjAddr: 0x2A6D8, symBinAddr: 0x100028D38, symSize: 0x0 }
  - { offsetInCU: 0x4D7F, offset: 0x2CC67, size: 0x8, addend: 0x0, symName: _glad_glSecondaryColor3i, symObjAddr: 0x2A6E0, symBinAddr: 0x100028D40, symSize: 0x0 }
  - { offsetInCU: 0x4DA2, offset: 0x2CC8A, size: 0x8, addend: 0x0, symName: _glad_glUniform4ui, symObjAddr: 0x2A6E8, symBinAddr: 0x100028D48, symSize: 0x0 }
  - { offsetInCU: 0x4DE5, offset: 0x2CCCD, size: 0x8, addend: 0x0, symName: _glad_glColor3f, symObjAddr: 0x2A6F0, symBinAddr: 0x100028D50, symSize: 0x0 }
  - { offsetInCU: 0x4E08, offset: 0x2CCF0, size: 0x8, addend: 0x0, symName: _glad_glBindFramebuffer, symObjAddr: 0x2A6F8, symBinAddr: 0x100028D58, symSize: 0x0 }
  - { offsetInCU: 0x4E2B, offset: 0x2CD13, size: 0x8, addend: 0x0, symName: _glad_glGetTexEnvfv, symObjAddr: 0x2A700, symBinAddr: 0x100028D60, symSize: 0x0 }
  - { offsetInCU: 0x4E4E, offset: 0x2CD36, size: 0x8, addend: 0x0, symName: _glad_glRectfv, symObjAddr: 0x2A708, symBinAddr: 0x100028D68, symSize: 0x0 }
  - { offsetInCU: 0x4E82, offset: 0x2CD6A, size: 0x8, addend: 0x0, symName: _glad_glCullFace, symObjAddr: 0x2A710, symBinAddr: 0x100028D70, symSize: 0x0 }
  - { offsetInCU: 0x4EA5, offset: 0x2CD8D, size: 0x8, addend: 0x0, symName: _glad_glGetLightfv, symObjAddr: 0x2A718, symBinAddr: 0x100028D78, symSize: 0x0 }
  - { offsetInCU: 0x4EC8, offset: 0x2CDB0, size: 0x8, addend: 0x0, symName: _glad_glColor3d, symObjAddr: 0x2A720, symBinAddr: 0x100028D80, symSize: 0x0 }
  - { offsetInCU: 0x4EEB, offset: 0x2CDD3, size: 0x8, addend: 0x0, symName: _glad_glTexGend, symObjAddr: 0x2A728, symBinAddr: 0x100028D88, symSize: 0x0 }
  - { offsetInCU: 0x4F24, offset: 0x2CE0C, size: 0x8, addend: 0x0, symName: _glad_glTexGeni, symObjAddr: 0x2A730, symBinAddr: 0x100028D90, symSize: 0x0 }
  - { offsetInCU: 0x4F47, offset: 0x2CE2F, size: 0x8, addend: 0x0, symName: _glad_glMultiTexCoord3s, symObjAddr: 0x2A738, symBinAddr: 0x100028D98, symSize: 0x0 }
  - { offsetInCU: 0x4F85, offset: 0x2CE6D, size: 0x8, addend: 0x0, symName: _glad_glGetStringi, symObjAddr: 0x2A740, symBinAddr: 0x100028DA0, symSize: 0x0 }
  - { offsetInCU: 0x4FBD, offset: 0x2CEA5, size: 0x8, addend: 0x0, symName: _glad_glMultiTexCoord3i, symObjAddr: 0x2A748, symBinAddr: 0x100028DA8, symSize: 0x0 }
  - { offsetInCU: 0x4FFB, offset: 0x2CEE3, size: 0x8, addend: 0x0, symName: _glad_glMultiTexCoord3f, symObjAddr: 0x2A750, symBinAddr: 0x100028DB0, symSize: 0x0 }
  - { offsetInCU: 0x5039, offset: 0x2CF21, size: 0x8, addend: 0x0, symName: _glad_glMultiTexCoord3d, symObjAddr: 0x2A758, symBinAddr: 0x100028DB8, symSize: 0x0 }
  - { offsetInCU: 0x5077, offset: 0x2CF5F, size: 0x8, addend: 0x0, symName: _glad_glAttachShader, symObjAddr: 0x2A760, symBinAddr: 0x100028DC0, symSize: 0x0 }
  - { offsetInCU: 0x509A, offset: 0x2CF82, size: 0x8, addend: 0x0, symName: _glad_glFogCoorddv, symObjAddr: 0x2A768, symBinAddr: 0x100028DC8, symSize: 0x0 }
  - { offsetInCU: 0x50BD, offset: 0x2CFA5, size: 0x8, addend: 0x0, symName: _glad_glUniformMatrix2x3fv, symObjAddr: 0x2A770, symBinAddr: 0x100028DD0, symSize: 0x0 }
  - { offsetInCU: 0x50E0, offset: 0x2CFC8, size: 0x8, addend: 0x0, symName: _glad_glGetTexGenfv, symObjAddr: 0x2A778, symBinAddr: 0x100028DD8, symSize: 0x0 }
  - { offsetInCU: 0x5103, offset: 0x2CFEB, size: 0x8, addend: 0x0, symName: _glad_glQueryCounter, symObjAddr: 0x2A780, symBinAddr: 0x100028DE0, symSize: 0x0 }
  - { offsetInCU: 0x5126, offset: 0x2D00E, size: 0x8, addend: 0x0, symName: _glad_glFogCoordPointer, symObjAddr: 0x2A788, symBinAddr: 0x100028DE8, symSize: 0x0 }
  - { offsetInCU: 0x5149, offset: 0x2D031, size: 0x8, addend: 0x0, symName: _glad_glProvokingVertex, symObjAddr: 0x2A790, symBinAddr: 0x100028DF0, symSize: 0x0 }
  - { offsetInCU: 0x516C, offset: 0x2D054, size: 0x8, addend: 0x0, symName: _glad_glFramebufferTexture3D, symObjAddr: 0x2A798, symBinAddr: 0x100028DF8, symSize: 0x0 }
  - { offsetInCU: 0x51B4, offset: 0x2D09C, size: 0x8, addend: 0x0, symName: _glad_glTexGeniv, symObjAddr: 0x2A7A0, symBinAddr: 0x100028E00, symSize: 0x0 }
  - { offsetInCU: 0x51D7, offset: 0x2D0BF, size: 0x8, addend: 0x0, symName: _glad_glRasterPos2dv, symObjAddr: 0x2A7A8, symBinAddr: 0x100028E08, symSize: 0x0 }
  - { offsetInCU: 0x51FA, offset: 0x2D0E2, size: 0x8, addend: 0x0, symName: _glad_glSecondaryColor3dv, symObjAddr: 0x2A7B0, symBinAddr: 0x100028E10, symSize: 0x0 }
  - { offsetInCU: 0x521D, offset: 0x2D105, size: 0x8, addend: 0x0, symName: _glad_glClientActiveTexture, symObjAddr: 0x2A7B8, symBinAddr: 0x100028E18, symSize: 0x0 }
  - { offsetInCU: 0x5240, offset: 0x2D128, size: 0x8, addend: 0x0, symName: _glad_glVertexAttribI4sv, symObjAddr: 0x2A7C0, symBinAddr: 0x100028E20, symSize: 0x0 }
  - { offsetInCU: 0x5263, offset: 0x2D14B, size: 0x8, addend: 0x0, symName: _glad_glSecondaryColor3us, symObjAddr: 0x2A7C8, symBinAddr: 0x100028E28, symSize: 0x0 }
  - { offsetInCU: 0x529C, offset: 0x2D184, size: 0x8, addend: 0x0, symName: _glad_glNormalP3ui, symObjAddr: 0x2A7D0, symBinAddr: 0x100028E30, symSize: 0x0 }
  - { offsetInCU: 0x52BF, offset: 0x2D1A7, size: 0x8, addend: 0x0, symName: _glad_glTexEnvfv, symObjAddr: 0x2A7D8, symBinAddr: 0x100028E38, symSize: 0x0 }
  - { offsetInCU: 0x52E2, offset: 0x2D1CA, size: 0x8, addend: 0x0, symName: _glad_glReadBuffer, symObjAddr: 0x2A7E0, symBinAddr: 0x100028E40, symSize: 0x0 }
  - { offsetInCU: 0x5305, offset: 0x2D1ED, size: 0x8, addend: 0x0, symName: _glad_glTexParameterIuiv, symObjAddr: 0x2A7E8, symBinAddr: 0x100028E48, symSize: 0x0 }
  - { offsetInCU: 0x5328, offset: 0x2D210, size: 0x8, addend: 0x0, symName: _glad_glDrawArraysInstanced, symObjAddr: 0x2A7F0, symBinAddr: 0x100028E50, symSize: 0x0 }
  - { offsetInCU: 0x5366, offset: 0x2D24E, size: 0x8, addend: 0x0, symName: _glad_glGenerateMipmap, symObjAddr: 0x2A7F8, symBinAddr: 0x100028E58, symSize: 0x0 }
  - { offsetInCU: 0x5389, offset: 0x2D271, size: 0x8, addend: 0x0, symName: _glad_glWindowPos3fv, symObjAddr: 0x2A800, symBinAddr: 0x100028E60, symSize: 0x0 }
  - { offsetInCU: 0x53AC, offset: 0x2D294, size: 0x8, addend: 0x0, symName: _glad_glLightModelfv, symObjAddr: 0x2A808, symBinAddr: 0x100028E68, symSize: 0x0 }
  - { offsetInCU: 0x53CF, offset: 0x2D2B7, size: 0x8, addend: 0x0, symName: _glad_glSamplerParameteriv, symObjAddr: 0x2A810, symBinAddr: 0x100028E70, symSize: 0x0 }
  - { offsetInCU: 0x53F2, offset: 0x2D2DA, size: 0x8, addend: 0x0, symName: _glad_glDeleteLists, symObjAddr: 0x2A818, symBinAddr: 0x100028E78, symSize: 0x0 }
  - { offsetInCU: 0x5426, offset: 0x2D30E, size: 0x8, addend: 0x0, symName: _glad_glGetClipPlane, symObjAddr: 0x2A820, symBinAddr: 0x100028E80, symSize: 0x0 }
  - { offsetInCU: 0x5449, offset: 0x2D331, size: 0x8, addend: 0x0, symName: _glad_glVertex4dv, symObjAddr: 0x2A828, symBinAddr: 0x100028E88, symSize: 0x0 }
  - { offsetInCU: 0x546C, offset: 0x2D354, size: 0x8, addend: 0x0, symName: _glad_glTexCoord2d, symObjAddr: 0x2A830, symBinAddr: 0x100028E90, symSize: 0x0 }
  - { offsetInCU: 0x548F, offset: 0x2D377, size: 0x8, addend: 0x0, symName: _glad_glPopMatrix, symObjAddr: 0x2A838, symBinAddr: 0x100028E98, symSize: 0x0 }
  - { offsetInCU: 0x54B2, offset: 0x2D39A, size: 0x8, addend: 0x0, symName: _glad_glTexCoord2f, symObjAddr: 0x2A840, symBinAddr: 0x100028EA0, symSize: 0x0 }
  - { offsetInCU: 0x54D5, offset: 0x2D3BD, size: 0x8, addend: 0x0, symName: _glad_glColor4iv, symObjAddr: 0x2A848, symBinAddr: 0x100028EA8, symSize: 0x0 }
  - { offsetInCU: 0x54F8, offset: 0x2D3E0, size: 0x8, addend: 0x0, symName: _glad_glIndexubv, symObjAddr: 0x2A850, symBinAddr: 0x100028EB0, symSize: 0x0 }
  - { offsetInCU: 0x551B, offset: 0x2D403, size: 0x8, addend: 0x0, symName: _glad_glUnmapBuffer, symObjAddr: 0x2A858, symBinAddr: 0x100028EB8, symSize: 0x0 }
  - { offsetInCU: 0x553E, offset: 0x2D426, size: 0x8, addend: 0x0, symName: _glad_glTexCoord2i, symObjAddr: 0x2A860, symBinAddr: 0x100028EC0, symSize: 0x0 }
  - { offsetInCU: 0x5561, offset: 0x2D449, size: 0x8, addend: 0x0, symName: _glad_glRasterPos4d, symObjAddr: 0x2A868, symBinAddr: 0x100028EC8, symSize: 0x0 }
  - { offsetInCU: 0x5584, offset: 0x2D46C, size: 0x8, addend: 0x0, symName: _glad_glRasterPos4f, symObjAddr: 0x2A870, symBinAddr: 0x100028ED0, symSize: 0x0 }
  - { offsetInCU: 0x55A7, offset: 0x2D48F, size: 0x8, addend: 0x0, symName: _glad_glVertexAttrib3s, symObjAddr: 0x2A878, symBinAddr: 0x100028ED8, symSize: 0x0 }
  - { offsetInCU: 0x55E5, offset: 0x2D4CD, size: 0x8, addend: 0x0, symName: _glad_glTexCoord2s, symObjAddr: 0x2A880, symBinAddr: 0x100028EE0, symSize: 0x0 }
  - { offsetInCU: 0x5608, offset: 0x2D4F0, size: 0x8, addend: 0x0, symName: _glad_glBindRenderbuffer, symObjAddr: 0x2A888, symBinAddr: 0x100028EE8, symSize: 0x0 }
  - { offsetInCU: 0x562B, offset: 0x2D513, size: 0x8, addend: 0x0, symName: _glad_glVertex3fv, symObjAddr: 0x2A890, symBinAddr: 0x100028EF0, symSize: 0x0 }
  - { offsetInCU: 0x564E, offset: 0x2D536, size: 0x8, addend: 0x0, symName: _glad_glTexCoord4dv, symObjAddr: 0x2A898, symBinAddr: 0x100028EF8, symSize: 0x0 }
  - { offsetInCU: 0x5671, offset: 0x2D559, size: 0x8, addend: 0x0, symName: _glad_glMaterialiv, symObjAddr: 0x2A8A0, symBinAddr: 0x100028F00, symSize: 0x0 }
  - { offsetInCU: 0x5694, offset: 0x2D57C, size: 0x8, addend: 0x0, symName: _glad_glVertexAttribP4uiv, symObjAddr: 0x2A8A8, symBinAddr: 0x100028F08, symSize: 0x0 }
  - { offsetInCU: 0x56B7, offset: 0x2D59F, size: 0x8, addend: 0x0, symName: _glad_glIsProgram, symObjAddr: 0x2A8B0, symBinAddr: 0x100028F10, symSize: 0x0 }
  - { offsetInCU: 0x56DA, offset: 0x2D5C2, size: 0x8, addend: 0x0, symName: _glad_glVertexAttrib4bv, symObjAddr: 0x2A8B8, symBinAddr: 0x100028F18, symSize: 0x0 }
  - { offsetInCU: 0x56FD, offset: 0x2D5E5, size: 0x8, addend: 0x0, symName: _glad_glVertex4s, symObjAddr: 0x2A8C0, symBinAddr: 0x100028F20, symSize: 0x0 }
  - { offsetInCU: 0x5720, offset: 0x2D608, size: 0x8, addend: 0x0, symName: _glad_glVertexAttrib4fv, symObjAddr: 0x2A8C8, symBinAddr: 0x100028F28, symSize: 0x0 }
  - { offsetInCU: 0x5743, offset: 0x2D62B, size: 0x8, addend: 0x0, symName: _glad_glNormal3dv, symObjAddr: 0x2A8D0, symBinAddr: 0x100028F30, symSize: 0x0 }
  - { offsetInCU: 0x5766, offset: 0x2D64E, size: 0x8, addend: 0x0, symName: _glad_glUniform4i, symObjAddr: 0x2A8D8, symBinAddr: 0x100028F38, symSize: 0x0 }
  - { offsetInCU: 0x57A9, offset: 0x2D691, size: 0x8, addend: 0x0, symName: _glad_glActiveTexture, symObjAddr: 0x2A8E0, symBinAddr: 0x100028F40, symSize: 0x0 }
  - { offsetInCU: 0x57CC, offset: 0x2D6B4, size: 0x8, addend: 0x0, symName: _glad_glEnableVertexAttribArray, symObjAddr: 0x2A8E8, symBinAddr: 0x100028F48, symSize: 0x0 }
  - { offsetInCU: 0x57EF, offset: 0x2D6D7, size: 0x8, addend: 0x0, symName: _glad_glRotated, symObjAddr: 0x2A8F0, symBinAddr: 0x100028F50, symSize: 0x0 }
  - { offsetInCU: 0x5812, offset: 0x2D6FA, size: 0x8, addend: 0x0, symName: _glad_glRotatef, symObjAddr: 0x2A8F8, symBinAddr: 0x100028F58, symSize: 0x0 }
  - { offsetInCU: 0x5835, offset: 0x2D71D, size: 0x8, addend: 0x0, symName: _glad_glVertex4i, symObjAddr: 0x2A900, symBinAddr: 0x100028F60, symSize: 0x0 }
  - { offsetInCU: 0x5858, offset: 0x2D740, size: 0x8, addend: 0x0, symName: _glad_glReadPixels, symObjAddr: 0x2A908, symBinAddr: 0x100028F68, symSize: 0x0 }
  - { offsetInCU: 0x58A5, offset: 0x2D78D, size: 0x8, addend: 0x0, symName: _glad_glVertexAttribI3iv, symObjAddr: 0x2A910, symBinAddr: 0x100028F70, symSize: 0x0 }
  - { offsetInCU: 0x58D9, offset: 0x2D7C1, size: 0x8, addend: 0x0, symName: _glad_glLoadName, symObjAddr: 0x2A918, symBinAddr: 0x100028F78, symSize: 0x0 }
  - { offsetInCU: 0x58FC, offset: 0x2D7E4, size: 0x8, addend: 0x0, symName: _glad_glUniform4f, symObjAddr: 0x2A920, symBinAddr: 0x100028F80, symSize: 0x0 }
  - { offsetInCU: 0x593F, offset: 0x2D827, size: 0x8, addend: 0x0, symName: _glad_glRenderbufferStorageMultisample, symObjAddr: 0x2A928, symBinAddr: 0x100028F88, symSize: 0x0 }
  - { offsetInCU: 0x5982, offset: 0x2D86A, size: 0x8, addend: 0x0, symName: _glad_glGenVertexArrays, symObjAddr: 0x2A930, symBinAddr: 0x100028F90, symSize: 0x0 }
  - { offsetInCU: 0x59A5, offset: 0x2D88D, size: 0x8, addend: 0x0, symName: _glad_glShadeModel, symObjAddr: 0x2A938, symBinAddr: 0x100028F98, symSize: 0x0 }
  - { offsetInCU: 0x59C8, offset: 0x2D8B0, size: 0x8, addend: 0x0, symName: _glad_glMapGrid1d, symObjAddr: 0x2A940, symBinAddr: 0x100028FA0, symSize: 0x0 }
  - { offsetInCU: 0x5A01, offset: 0x2D8E9, size: 0x8, addend: 0x0, symName: _glad_glGetUniformfv, symObjAddr: 0x2A948, symBinAddr: 0x100028FA8, symSize: 0x0 }
  - { offsetInCU: 0x5A3A, offset: 0x2D922, size: 0x8, addend: 0x0, symName: _glad_glMapGrid1f, symObjAddr: 0x2A950, symBinAddr: 0x100028FB0, symSize: 0x0 }
  - { offsetInCU: 0x5A73, offset: 0x2D95B, size: 0x8, addend: 0x0, symName: _glad_glSamplerParameterfv, symObjAddr: 0x2A958, symBinAddr: 0x100028FB8, symSize: 0x0 }
  - { offsetInCU: 0x5AAC, offset: 0x2D994, size: 0x8, addend: 0x0, symName: _glad_glDisableClientState, symObjAddr: 0x2A960, symBinAddr: 0x100028FC0, symSize: 0x0 }
  - { offsetInCU: 0x5ACF, offset: 0x2D9B7, size: 0x8, addend: 0x0, symName: _glad_glMultiTexCoord3sv, symObjAddr: 0x2A968, symBinAddr: 0x100028FC8, symSize: 0x0 }
  - { offsetInCU: 0x5AF2, offset: 0x2D9DA, size: 0x8, addend: 0x0, symName: _glad_glDrawElementsInstancedBaseVertex, symObjAddr: 0x2A970, symBinAddr: 0x100028FD0, symSize: 0x0 }
  - { offsetInCU: 0x5B3A, offset: 0x2DA22, size: 0x8, addend: 0x0, symName: _glad_glSecondaryColorPointer, symObjAddr: 0x2A978, symBinAddr: 0x100028FD8, symSize: 0x0 }
  - { offsetInCU: 0x5B5D, offset: 0x2DA45, size: 0x8, addend: 0x0, symName: _glad_glAlphaFunc, symObjAddr: 0x2A980, symBinAddr: 0x100028FE0, symSize: 0x0 }
  - { offsetInCU: 0x5B80, offset: 0x2DA68, size: 0x8, addend: 0x0, symName: _glad_glUniform1iv, symObjAddr: 0x2A988, symBinAddr: 0x100028FE8, symSize: 0x0 }
  - { offsetInCU: 0x5BA3, offset: 0x2DA8B, size: 0x8, addend: 0x0, symName: _glad_glMultiTexCoord4iv, symObjAddr: 0x2A990, symBinAddr: 0x100028FF0, symSize: 0x0 }
  - { offsetInCU: 0x5BC6, offset: 0x2DAAE, size: 0x8, addend: 0x0, symName: _glad_glGetQueryObjectiv, symObjAddr: 0x2A998, symBinAddr: 0x100028FF8, symSize: 0x0 }
  - { offsetInCU: 0x5BE9, offset: 0x2DAD1, size: 0x8, addend: 0x0, symName: _glad_glStencilFunc, symObjAddr: 0x2A9A0, symBinAddr: 0x100029000, symSize: 0x0 }
  - { offsetInCU: 0x5C22, offset: 0x2DB0A, size: 0x8, addend: 0x0, symName: _glad_glMultiTexCoord1fv, symObjAddr: 0x2A9A8, symBinAddr: 0x100029008, symSize: 0x0 }
  - { offsetInCU: 0x5C45, offset: 0x2DB2D, size: 0x8, addend: 0x0, symName: _glad_glUniformBlockBinding, symObjAddr: 0x2A9B0, symBinAddr: 0x100029010, symSize: 0x0 }
  - { offsetInCU: 0x5C68, offset: 0x2DB50, size: 0x8, addend: 0x0, symName: _glad_glColor4uiv, symObjAddr: 0x2A9B8, symBinAddr: 0x100029018, symSize: 0x0 }
  - { offsetInCU: 0x5C8B, offset: 0x2DB73, size: 0x8, addend: 0x0, symName: _glad_glRectiv, symObjAddr: 0x2A9C0, symBinAddr: 0x100029020, symSize: 0x0 }
  - { offsetInCU: 0x5CBF, offset: 0x2DBA7, size: 0x8, addend: 0x0, symName: _glad_glColorP4ui, symObjAddr: 0x2A9C8, symBinAddr: 0x100029028, symSize: 0x0 }
  - { offsetInCU: 0x5CE2, offset: 0x2DBCA, size: 0x8, addend: 0x0, symName: _glad_glRasterPos3dv, symObjAddr: 0x2A9D0, symBinAddr: 0x100029030, symSize: 0x0 }
  - { offsetInCU: 0x5D05, offset: 0x2DBED, size: 0x8, addend: 0x0, symName: _glad_glEvalMesh2, symObjAddr: 0x2A9D8, symBinAddr: 0x100029038, symSize: 0x0 }
  - { offsetInCU: 0x5D48, offset: 0x2DC30, size: 0x8, addend: 0x0, symName: _glad_glEvalMesh1, symObjAddr: 0x2A9E0, symBinAddr: 0x100029040, symSize: 0x0 }
  - { offsetInCU: 0x5D6B, offset: 0x2DC53, size: 0x8, addend: 0x0, symName: _glad_glTexCoordPointer, symObjAddr: 0x2A9E8, symBinAddr: 0x100029048, symSize: 0x0 }
  - { offsetInCU: 0x5D8E, offset: 0x2DC76, size: 0x8, addend: 0x0, symName: _glad_glVertexAttrib4Nubv, symObjAddr: 0x2A9F0, symBinAddr: 0x100029050, symSize: 0x0 }
  - { offsetInCU: 0x5DB1, offset: 0x2DC99, size: 0x8, addend: 0x0, symName: _glad_glVertexAttribI4iv, symObjAddr: 0x2A9F8, symBinAddr: 0x100029058, symSize: 0x0 }
  - { offsetInCU: 0x5DD4, offset: 0x2DCBC, size: 0x8, addend: 0x0, symName: _glad_glEvalCoord2fv, symObjAddr: 0x2AA00, symBinAddr: 0x100029060, symSize: 0x0 }
  - { offsetInCU: 0x5DF7, offset: 0x2DCDF, size: 0x8, addend: 0x0, symName: _glad_glColor4ubv, symObjAddr: 0x2AA08, symBinAddr: 0x100029068, symSize: 0x0 }
  - { offsetInCU: 0x5E1A, offset: 0x2DD02, size: 0x8, addend: 0x0, symName: _glad_glLoadTransposeMatrixd, symObjAddr: 0x2AA10, symBinAddr: 0x100029070, symSize: 0x0 }
  - { offsetInCU: 0x5E3D, offset: 0x2DD25, size: 0x8, addend: 0x0, symName: _glad_glLoadTransposeMatrixf, symObjAddr: 0x2AA18, symBinAddr: 0x100029078, symSize: 0x0 }
  - { offsetInCU: 0x5E60, offset: 0x2DD48, size: 0x8, addend: 0x0, symName: _glad_glVertexAttribI4i, symObjAddr: 0x2AA20, symBinAddr: 0x100029080, symSize: 0x0 }
  - { offsetInCU: 0x5EA3, offset: 0x2DD8B, size: 0x8, addend: 0x0, symName: _glad_glRasterPos2iv, symObjAddr: 0x2AA28, symBinAddr: 0x100029088, symSize: 0x0 }
  - { offsetInCU: 0x5EC6, offset: 0x2DDAE, size: 0x8, addend: 0x0, symName: _glad_glGetBufferSubData, symObjAddr: 0x2AA30, symBinAddr: 0x100029090, symSize: 0x0 }
  - { offsetInCU: 0x5F04, offset: 0x2DDEC, size: 0x8, addend: 0x0, symName: _glad_glTexEnviv, symObjAddr: 0x2AA38, symBinAddr: 0x100029098, symSize: 0x0 }
  - { offsetInCU: 0x5F27, offset: 0x2DE0F, size: 0x8, addend: 0x0, symName: _glad_glBlendEquationSeparate, symObjAddr: 0x2AA40, symBinAddr: 0x1000290A0, symSize: 0x0 }
  - { offsetInCU: 0x5F4A, offset: 0x2DE32, size: 0x8, addend: 0x0, symName: _glad_glVertexAttribI1ui, symObjAddr: 0x2AA48, symBinAddr: 0x1000290A8, symSize: 0x0 }
  - { offsetInCU: 0x5F6D, offset: 0x2DE55, size: 0x8, addend: 0x0, symName: _glad_glGenBuffers, symObjAddr: 0x2AA50, symBinAddr: 0x1000290B0, symSize: 0x0 }
  - { offsetInCU: 0x5F90, offset: 0x2DE78, size: 0x8, addend: 0x0, symName: _glad_glSelectBuffer, symObjAddr: 0x2AA58, symBinAddr: 0x1000290B8, symSize: 0x0 }
  - { offsetInCU: 0x5FB3, offset: 0x2DE9B, size: 0x8, addend: 0x0, symName: _glad_glVertexAttrib2sv, symObjAddr: 0x2AA60, symBinAddr: 0x1000290C0, symSize: 0x0 }
  - { offsetInCU: 0x5FD6, offset: 0x2DEBE, size: 0x8, addend: 0x0, symName: _glad_glPushAttrib, symObjAddr: 0x2AA68, symBinAddr: 0x1000290C8, symSize: 0x0 }
  - { offsetInCU: 0x5FF9, offset: 0x2DEE1, size: 0x8, addend: 0x0, symName: _glad_glVertexAttribIPointer, symObjAddr: 0x2AA70, symBinAddr: 0x1000290D0, symSize: 0x0 }
  - { offsetInCU: 0x603C, offset: 0x2DF24, size: 0x8, addend: 0x0, symName: _glad_glBlendFunc, symObjAddr: 0x2AA78, symBinAddr: 0x1000290D8, symSize: 0x0 }
  - { offsetInCU: 0x605F, offset: 0x2DF47, size: 0x8, addend: 0x0, symName: _glad_glCreateProgram, symObjAddr: 0x2AA80, symBinAddr: 0x1000290E0, symSize: 0x0 }
  - { offsetInCU: 0x608C, offset: 0x2DF74, size: 0x8, addend: 0x0, symName: _glad_glTexImage3D, symObjAddr: 0x2AA88, symBinAddr: 0x1000290E8, symSize: 0x0 }
  - { offsetInCU: 0x60E8, offset: 0x2DFD0, size: 0x8, addend: 0x0, symName: _glad_glIsFramebuffer, symObjAddr: 0x2AA90, symBinAddr: 0x1000290F0, symSize: 0x0 }
  - { offsetInCU: 0x610B, offset: 0x2DFF3, size: 0x8, addend: 0x0, symName: _glad_glLightiv, symObjAddr: 0x2AA98, symBinAddr: 0x1000290F8, symSize: 0x0 }
  - { offsetInCU: 0x612E, offset: 0x2E016, size: 0x8, addend: 0x0, symName: _glad_glPrimitiveRestartIndex, symObjAddr: 0x2AAA0, symBinAddr: 0x100029100, symSize: 0x0 }
  - { offsetInCU: 0x6151, offset: 0x2E039, size: 0x8, addend: 0x0, symName: _glad_glTexGenfv, symObjAddr: 0x2AAA8, symBinAddr: 0x100029108, symSize: 0x0 }
  - { offsetInCU: 0x6174, offset: 0x2E05C, size: 0x8, addend: 0x0, symName: _glad_glEnd, symObjAddr: 0x2AAB0, symBinAddr: 0x100029110, symSize: 0x0 }
  - { offsetInCU: 0x6197, offset: 0x2E07F, size: 0x8, addend: 0x0, symName: _glad_glDeleteBuffers, symObjAddr: 0x2AAB8, symBinAddr: 0x100029118, symSize: 0x0 }
  - { offsetInCU: 0x61BA, offset: 0x2E0A2, size: 0x8, addend: 0x0, symName: _glad_glScissor, symObjAddr: 0x2AAC0, symBinAddr: 0x100029120, symSize: 0x0 }
  - { offsetInCU: 0x61DD, offset: 0x2E0C5, size: 0x8, addend: 0x0, symName: _glad_glTexCoordP4uiv, symObjAddr: 0x2AAC8, symBinAddr: 0x100029128, symSize: 0x0 }
  - { offsetInCU: 0x6200, offset: 0x2E0E8, size: 0x8, addend: 0x0, symName: _glad_glClipPlane, symObjAddr: 0x2AAD0, symBinAddr: 0x100029130, symSize: 0x0 }
  - { offsetInCU: 0x6223, offset: 0x2E10B, size: 0x8, addend: 0x0, symName: _glad_glPushName, symObjAddr: 0x2AAD8, symBinAddr: 0x100029138, symSize: 0x0 }
  - { offsetInCU: 0x6246, offset: 0x2E12E, size: 0x8, addend: 0x0, symName: _glad_glTexGendv, symObjAddr: 0x2AAE0, symBinAddr: 0x100029140, symSize: 0x0 }
  - { offsetInCU: 0x627F, offset: 0x2E167, size: 0x8, addend: 0x0, symName: _glad_glIndexub, symObjAddr: 0x2AAE8, symBinAddr: 0x100029148, symSize: 0x0 }
  - { offsetInCU: 0x62AE, offset: 0x2E196, size: 0x8, addend: 0x0, symName: _glad_glVertexP2uiv, symObjAddr: 0x2AAF0, symBinAddr: 0x100029150, symSize: 0x0 }
  - { offsetInCU: 0x62D1, offset: 0x2E1B9, size: 0x8, addend: 0x0, symName: _glad_glSecondaryColor3iv, symObjAddr: 0x2AAF8, symBinAddr: 0x100029158, symSize: 0x0 }
  - { offsetInCU: 0x62F4, offset: 0x2E1DC, size: 0x8, addend: 0x0, symName: _glad_glRasterPos4i, symObjAddr: 0x2AB00, symBinAddr: 0x100029160, symSize: 0x0 }
  - { offsetInCU: 0x6317, offset: 0x2E1FF, size: 0x8, addend: 0x0, symName: _glad_glMultTransposeMatrixd, symObjAddr: 0x2AB08, symBinAddr: 0x100029168, symSize: 0x0 }
  - { offsetInCU: 0x633A, offset: 0x2E222, size: 0x8, addend: 0x0, symName: _glad_glClearColor, symObjAddr: 0x2AB10, symBinAddr: 0x100029170, symSize: 0x0 }
  - { offsetInCU: 0x635D, offset: 0x2E245, size: 0x8, addend: 0x0, symName: _glad_glVertexAttrib4uiv, symObjAddr: 0x2AB18, symBinAddr: 0x100029178, symSize: 0x0 }
  - { offsetInCU: 0x6380, offset: 0x2E268, size: 0x8, addend: 0x0, symName: _glad_glNormal3s, symObjAddr: 0x2AB20, symBinAddr: 0x100029180, symSize: 0x0 }
  - { offsetInCU: 0x63A3, offset: 0x2E28B, size: 0x8, addend: 0x0, symName: _glad_glVertexAttrib4Niv, symObjAddr: 0x2AB28, symBinAddr: 0x100029188, symSize: 0x0 }
  - { offsetInCU: 0x63C6, offset: 0x2E2AE, size: 0x8, addend: 0x0, symName: _glad_glClearBufferiv, symObjAddr: 0x2AB30, symBinAddr: 0x100029190, symSize: 0x0 }
  - { offsetInCU: 0x63FF, offset: 0x2E2E7, size: 0x8, addend: 0x0, symName: _glad_glPointParameteri, symObjAddr: 0x2AB38, symBinAddr: 0x100029198, symSize: 0x0 }
  - { offsetInCU: 0x6422, offset: 0x2E30A, size: 0x8, addend: 0x0, symName: _glad_glColorP4uiv, symObjAddr: 0x2AB40, symBinAddr: 0x1000291A0, symSize: 0x0 }
  - { offsetInCU: 0x6445, offset: 0x2E32D, size: 0x8, addend: 0x0, symName: _glad_glBlendColor, symObjAddr: 0x2AB48, symBinAddr: 0x1000291A8, symSize: 0x0 }
  - { offsetInCU: 0x6468, offset: 0x2E350, size: 0x8, addend: 0x0, symName: _glad_glWindowPos3d, symObjAddr: 0x2AB50, symBinAddr: 0x1000291B0, symSize: 0x0 }
  - { offsetInCU: 0x648B, offset: 0x2E373, size: 0x8, addend: 0x0, symName: _glad_glVertexAttribI2uiv, symObjAddr: 0x2AB58, symBinAddr: 0x1000291B8, symSize: 0x0 }
  - { offsetInCU: 0x64AE, offset: 0x2E396, size: 0x8, addend: 0x0, symName: _glad_glSamplerParameterIuiv, symObjAddr: 0x2AB60, symBinAddr: 0x1000291C0, symSize: 0x0 }
  - { offsetInCU: 0x64E7, offset: 0x2E3CF, size: 0x8, addend: 0x0, symName: _glad_glUniform3ui, symObjAddr: 0x2AB68, symBinAddr: 0x1000291C8, symSize: 0x0 }
  - { offsetInCU: 0x6525, offset: 0x2E40D, size: 0x8, addend: 0x0, symName: _glad_glColor4dv, symObjAddr: 0x2AB70, symBinAddr: 0x1000291D0, symSize: 0x0 }
  - { offsetInCU: 0x6548, offset: 0x2E430, size: 0x8, addend: 0x0, symName: _glad_glVertexAttribI4uiv, symObjAddr: 0x2AB78, symBinAddr: 0x1000291D8, symSize: 0x0 }
  - { offsetInCU: 0x656B, offset: 0x2E453, size: 0x8, addend: 0x0, symName: _glad_glPointParameterfv, symObjAddr: 0x2AB80, symBinAddr: 0x1000291E0, symSize: 0x0 }
  - { offsetInCU: 0x658E, offset: 0x2E476, size: 0x8, addend: 0x0, symName: _glad_glUniform2fv, symObjAddr: 0x2AB88, symBinAddr: 0x1000291E8, symSize: 0x0 }
  - { offsetInCU: 0x65B1, offset: 0x2E499, size: 0x8, addend: 0x0, symName: _glad_glSecondaryColor3ub, symObjAddr: 0x2AB90, symBinAddr: 0x1000291F0, symSize: 0x0 }
  - { offsetInCU: 0x65EA, offset: 0x2E4D2, size: 0x8, addend: 0x0, symName: _glad_glSecondaryColor3ui, symObjAddr: 0x2AB98, symBinAddr: 0x1000291F8, symSize: 0x0 }
  - { offsetInCU: 0x660D, offset: 0x2E4F5, size: 0x8, addend: 0x0, symName: _glad_glTexCoord3dv, symObjAddr: 0x2ABA0, symBinAddr: 0x100029200, symSize: 0x0 }
  - { offsetInCU: 0x6630, offset: 0x2E518, size: 0x8, addend: 0x0, symName: _glad_glGetSamplerParameterIuiv, symObjAddr: 0x2ABA8, symBinAddr: 0x100029208, symSize: 0x0 }
  - { offsetInCU: 0x6653, offset: 0x2E53B, size: 0x8, addend: 0x0, symName: _glad_glBindBufferRange, symObjAddr: 0x2ABB0, symBinAddr: 0x100029210, symSize: 0x0 }
  - { offsetInCU: 0x6696, offset: 0x2E57E, size: 0x8, addend: 0x0, symName: _glad_glNormal3iv, symObjAddr: 0x2ABB8, symBinAddr: 0x100029218, symSize: 0x0 }
  - { offsetInCU: 0x66B9, offset: 0x2E5A1, size: 0x8, addend: 0x0, symName: _glad_glWindowPos3s, symObjAddr: 0x2ABC0, symBinAddr: 0x100029220, symSize: 0x0 }
  - { offsetInCU: 0x66DC, offset: 0x2E5C4, size: 0x8, addend: 0x0, symName: _glad_glPointParameterf, symObjAddr: 0x2ABC8, symBinAddr: 0x100029228, symSize: 0x0 }
  - { offsetInCU: 0x66FF, offset: 0x2E5E7, size: 0x8, addend: 0x0, symName: _glad_glGetVertexAttribIuiv, symObjAddr: 0x2ABD0, symBinAddr: 0x100029230, symSize: 0x0 }
  - { offsetInCU: 0x6722, offset: 0x2E60A, size: 0x8, addend: 0x0, symName: _glad_glWindowPos3i, symObjAddr: 0x2ABD8, symBinAddr: 0x100029238, symSize: 0x0 }
  - { offsetInCU: 0x6745, offset: 0x2E62D, size: 0x8, addend: 0x0, symName: _glad_glMultiTexCoord4s, symObjAddr: 0x2ABE0, symBinAddr: 0x100029240, symSize: 0x0 }
  - { offsetInCU: 0x6788, offset: 0x2E670, size: 0x8, addend: 0x0, symName: _glad_glWindowPos3f, symObjAddr: 0x2ABE8, symBinAddr: 0x100029248, symSize: 0x0 }
  - { offsetInCU: 0x67AB, offset: 0x2E693, size: 0x8, addend: 0x0, symName: _glad_glColor3us, symObjAddr: 0x2ABF0, symBinAddr: 0x100029250, symSize: 0x0 }
  - { offsetInCU: 0x67CE, offset: 0x2E6B6, size: 0x8, addend: 0x0, symName: _glad_glColor3uiv, symObjAddr: 0x2ABF8, symBinAddr: 0x100029258, symSize: 0x0 }
  - { offsetInCU: 0x67F1, offset: 0x2E6D9, size: 0x8, addend: 0x0, symName: _glad_glVertexAttrib4Nusv, symObjAddr: 0x2AC00, symBinAddr: 0x100029260, symSize: 0x0 }
  - { offsetInCU: 0x6814, offset: 0x2E6FC, size: 0x8, addend: 0x0, symName: _glad_glGetLightiv, symObjAddr: 0x2AC08, symBinAddr: 0x100029268, symSize: 0x0 }
  - { offsetInCU: 0x6837, offset: 0x2E71F, size: 0x8, addend: 0x0, symName: _glad_glDepthFunc, symObjAddr: 0x2AC10, symBinAddr: 0x100029270, symSize: 0x0 }
  - { offsetInCU: 0x685A, offset: 0x2E742, size: 0x8, addend: 0x0, symName: _glad_glCompressedTexSubImage2D, symObjAddr: 0x2AC18, symBinAddr: 0x100029278, symSize: 0x0 }
  - { offsetInCU: 0x68B1, offset: 0x2E799, size: 0x8, addend: 0x0, symName: _glad_glListBase, symObjAddr: 0x2AC20, symBinAddr: 0x100029280, symSize: 0x0 }
  - { offsetInCU: 0x68D4, offset: 0x2E7BC, size: 0x8, addend: 0x0, symName: _glad_glMultiTexCoord4f, symObjAddr: 0x2AC28, symBinAddr: 0x100029288, symSize: 0x0 }
  - { offsetInCU: 0x6917, offset: 0x2E7FF, size: 0x8, addend: 0x0, symName: _glad_glColor3ub, symObjAddr: 0x2AC30, symBinAddr: 0x100029290, symSize: 0x0 }
  - { offsetInCU: 0x693A, offset: 0x2E822, size: 0x8, addend: 0x0, symName: _glad_glMultiTexCoord4d, symObjAddr: 0x2AC38, symBinAddr: 0x100029298, symSize: 0x0 }
  - { offsetInCU: 0x697D, offset: 0x2E865, size: 0x8, addend: 0x0, symName: _glad_glVertexAttribI4bv, symObjAddr: 0x2AC40, symBinAddr: 0x1000292A0, symSize: 0x0 }
  - { offsetInCU: 0x69A0, offset: 0x2E888, size: 0x8, addend: 0x0, symName: _glad_glGetTexParameterfv, symObjAddr: 0x2AC48, symBinAddr: 0x1000292A8, symSize: 0x0 }
  - { offsetInCU: 0x69C3, offset: 0x2E8AB, size: 0x8, addend: 0x0, symName: _glad_glColor3ui, symObjAddr: 0x2AC50, symBinAddr: 0x1000292B0, symSize: 0x0 }
  - { offsetInCU: 0x69E6, offset: 0x2E8CE, size: 0x8, addend: 0x0, symName: _glad_glMultiTexCoord4i, symObjAddr: 0x2AC58, symBinAddr: 0x1000292B8, symSize: 0x0 }
  - { offsetInCU: 0x6A09, offset: 0x2E8F1, size: 0x8, addend: 0x0, symName: _glad_glGetPolygonStipple, symObjAddr: 0x2AC60, symBinAddr: 0x1000292C0, symSize: 0x0 }
  - { offsetInCU: 0x6A3D, offset: 0x2E925, size: 0x8, addend: 0x0, symName: _glad_glClientWaitSync, symObjAddr: 0x2AC68, symBinAddr: 0x1000292C8, symSize: 0x0 }
  - { offsetInCU: 0x6A7A, offset: 0x2E962, size: 0x8, addend: 0x0, symName: _glad_glVertexAttribI4ui, symObjAddr: 0x2AC70, symBinAddr: 0x1000292D0, symSize: 0x0 }
  - { offsetInCU: 0x6ABD, offset: 0x2E9A5, size: 0x8, addend: 0x0, symName: _glad_glMultiTexCoord4dv, symObjAddr: 0x2AC78, symBinAddr: 0x1000292D8, symSize: 0x0 }
  - { offsetInCU: 0x6AE0, offset: 0x2E9C8, size: 0x8, addend: 0x0, symName: _glad_glColorMask, symObjAddr: 0x2AC80, symBinAddr: 0x1000292E0, symSize: 0x0 }
  - { offsetInCU: 0x6B1E, offset: 0x2EA06, size: 0x8, addend: 0x0, symName: _glad_glTexParameterIiv, symObjAddr: 0x2AC88, symBinAddr: 0x1000292E8, symSize: 0x0 }
  - { offsetInCU: 0x6B41, offset: 0x2EA29, size: 0x8, addend: 0x0, symName: _glad_glBlendEquation, symObjAddr: 0x2AC90, symBinAddr: 0x1000292F0, symSize: 0x0 }
  - { offsetInCU: 0x6B64, offset: 0x2EA4C, size: 0x8, addend: 0x0, symName: _glad_glGetUniformLocation, symObjAddr: 0x2AC98, symBinAddr: 0x1000292F8, symSize: 0x0 }
  - { offsetInCU: 0x6B87, offset: 0x2EA6F, size: 0x8, addend: 0x0, symName: _glad_glGetSamplerParameteriv, symObjAddr: 0x2ACA0, symBinAddr: 0x100029300, symSize: 0x0 }
  - { offsetInCU: 0x6BAA, offset: 0x2EA92, size: 0x8, addend: 0x0, symName: _glad_glRasterPos4s, symObjAddr: 0x2ACA8, symBinAddr: 0x100029308, symSize: 0x0 }
  - { offsetInCU: 0x6BCD, offset: 0x2EAB5, size: 0x8, addend: 0x0, symName: _glad_glEndTransformFeedback, symObjAddr: 0x2ACB0, symBinAddr: 0x100029310, symSize: 0x0 }
  - { offsetInCU: 0x6BF0, offset: 0x2EAD8, size: 0x8, addend: 0x0, symName: _glad_glVertexAttrib4usv, symObjAddr: 0x2ACB8, symBinAddr: 0x100029318, symSize: 0x0 }
  - { offsetInCU: 0x6C13, offset: 0x2EAFB, size: 0x8, addend: 0x0, symName: _glad_glMultiTexCoord3dv, symObjAddr: 0x2ACC0, symBinAddr: 0x100029320, symSize: 0x0 }
  - { offsetInCU: 0x6C36, offset: 0x2EB1E, size: 0x8, addend: 0x0, symName: _glad_glColor4sv, symObjAddr: 0x2ACC8, symBinAddr: 0x100029328, symSize: 0x0 }
  - { offsetInCU: 0x6C59, offset: 0x2EB41, size: 0x8, addend: 0x0, symName: _glad_glPopClientAttrib, symObjAddr: 0x2ACD0, symBinAddr: 0x100029330, symSize: 0x0 }
  - { offsetInCU: 0x6C7C, offset: 0x2EB64, size: 0x8, addend: 0x0, symName: _glad_glBeginTransformFeedback, symObjAddr: 0x2ACD8, symBinAddr: 0x100029338, symSize: 0x0 }
  - { offsetInCU: 0x6C9F, offset: 0x2EB87, size: 0x8, addend: 0x0, symName: _glad_glFogf, symObjAddr: 0x2ACE0, symBinAddr: 0x100029340, symSize: 0x0 }
  - { offsetInCU: 0x6CC2, offset: 0x2EBAA, size: 0x8, addend: 0x0, symName: _glad_glVertexAttribI1iv, symObjAddr: 0x2ACE8, symBinAddr: 0x100029348, symSize: 0x0 }
  - { offsetInCU: 0x6CE5, offset: 0x2EBCD, size: 0x8, addend: 0x0, symName: _glad_glIsSampler, symObjAddr: 0x2ACF0, symBinAddr: 0x100029350, symSize: 0x0 }
  - { offsetInCU: 0x6D08, offset: 0x2EBF0, size: 0x8, addend: 0x0, symName: _glad_glVertexP3ui, symObjAddr: 0x2ACF8, symBinAddr: 0x100029358, symSize: 0x0 }
  - { offsetInCU: 0x6D2B, offset: 0x2EC13, size: 0x8, addend: 0x0, symName: _glad_glVertexAttribDivisor, symObjAddr: 0x2AD00, symBinAddr: 0x100029360, symSize: 0x0 }
  - { offsetInCU: 0x6D4E, offset: 0x2EC36, size: 0x8, addend: 0x0, symName: _glad_glColor3iv, symObjAddr: 0x2AD08, symBinAddr: 0x100029368, symSize: 0x0 }
  - { offsetInCU: 0x6D71, offset: 0x2EC59, size: 0x8, addend: 0x0, symName: _glad_glCompressedTexImage1D, symObjAddr: 0x2AD10, symBinAddr: 0x100029370, symSize: 0x0 }
  - { offsetInCU: 0x6DBE, offset: 0x2ECA6, size: 0x8, addend: 0x0, symName: _glad_glCopyTexSubImage1D, symObjAddr: 0x2AD18, symBinAddr: 0x100029378, symSize: 0x0 }
  - { offsetInCU: 0x6E06, offset: 0x2ECEE, size: 0x8, addend: 0x0, symName: _glad_glTexCoord1i, symObjAddr: 0x2AD20, symBinAddr: 0x100029380, symSize: 0x0 }
  - { offsetInCU: 0x6E29, offset: 0x2ED11, size: 0x8, addend: 0x0, symName: _glad_glCheckFramebufferStatus, symObjAddr: 0x2AD28, symBinAddr: 0x100029388, symSize: 0x0 }
  - { offsetInCU: 0x6E5C, offset: 0x2ED44, size: 0x8, addend: 0x0, symName: _glad_glTexCoord1d, symObjAddr: 0x2AD30, symBinAddr: 0x100029390, symSize: 0x0 }
  - { offsetInCU: 0x6E7F, offset: 0x2ED67, size: 0x8, addend: 0x0, symName: _glad_glTexCoord1f, symObjAddr: 0x2AD38, symBinAddr: 0x100029398, symSize: 0x0 }
  - { offsetInCU: 0x6EA2, offset: 0x2ED8A, size: 0x8, addend: 0x0, symName: _glad_glEndConditionalRender, symObjAddr: 0x2AD40, symBinAddr: 0x1000293A0, symSize: 0x0 }
  - { offsetInCU: 0x6EC5, offset: 0x2EDAD, size: 0x8, addend: 0x0, symName: _glad_glEnableClientState, symObjAddr: 0x2AD48, symBinAddr: 0x1000293A8, symSize: 0x0 }
  - { offsetInCU: 0x6EE8, offset: 0x2EDD0, size: 0x8, addend: 0x0, symName: _glad_glBindAttribLocation, symObjAddr: 0x2AD50, symBinAddr: 0x1000293B0, symSize: 0x0 }
  - { offsetInCU: 0x6F0B, offset: 0x2EDF3, size: 0x8, addend: 0x0, symName: _glad_glUniformMatrix4x2fv, symObjAddr: 0x2AD58, symBinAddr: 0x1000293B8, symSize: 0x0 }
  - { offsetInCU: 0x6F2E, offset: 0x2EE16, size: 0x8, addend: 0x0, symName: _glad_glMultiTexCoord2sv, symObjAddr: 0x2AD60, symBinAddr: 0x1000293C0, symSize: 0x0 }
  - { offsetInCU: 0x6F51, offset: 0x2EE39, size: 0x8, addend: 0x0, symName: _glad_glVertexAttrib1dv, symObjAddr: 0x2AD68, symBinAddr: 0x1000293C8, symSize: 0x0 }
  - { offsetInCU: 0x6F74, offset: 0x2EE5C, size: 0x8, addend: 0x0, symName: _glad_glDrawRangeElements, symObjAddr: 0x2AD70, symBinAddr: 0x1000293D0, symSize: 0x0 }
  - { offsetInCU: 0x6FBC, offset: 0x2EEA4, size: 0x8, addend: 0x0, symName: _glad_glTexCoord1s, symObjAddr: 0x2AD78, symBinAddr: 0x1000293D8, symSize: 0x0 }
  - { offsetInCU: 0x6FDF, offset: 0x2EEC7, size: 0x8, addend: 0x0, symName: _glad_glBindBufferBase, symObjAddr: 0x2AD80, symBinAddr: 0x1000293E0, symSize: 0x0 }
  - { offsetInCU: 0x7018, offset: 0x2EF00, size: 0x8, addend: 0x0, symName: _glad_glBufferSubData, symObjAddr: 0x2AD88, symBinAddr: 0x1000293E8, symSize: 0x0 }
  - { offsetInCU: 0x7056, offset: 0x2EF3E, size: 0x8, addend: 0x0, symName: _glad_glVertexAttrib4iv, symObjAddr: 0x2AD90, symBinAddr: 0x1000293F0, symSize: 0x0 }
  - { offsetInCU: 0x7079, offset: 0x2EF61, size: 0x8, addend: 0x0, symName: _glad_glGenLists, symObjAddr: 0x2AD98, symBinAddr: 0x1000293F8, symSize: 0x0 }
  - { offsetInCU: 0x70AC, offset: 0x2EF94, size: 0x8, addend: 0x0, symName: _glad_glColor3bv, symObjAddr: 0x2ADA0, symBinAddr: 0x100029400, symSize: 0x0 }
  - { offsetInCU: 0x70CF, offset: 0x2EFB7, size: 0x8, addend: 0x0, symName: _glad_glMapBufferRange, symObjAddr: 0x2ADA8, symBinAddr: 0x100029408, symSize: 0x0 }
  - { offsetInCU: 0x7111, offset: 0x2EFF9, size: 0x8, addend: 0x0, symName: _glad_glFramebufferTexture, symObjAddr: 0x2ADB0, symBinAddr: 0x100029410, symSize: 0x0 }
  - { offsetInCU: 0x714F, offset: 0x2F037, size: 0x8, addend: 0x0, symName: _glad_glGetTexGendv, symObjAddr: 0x2ADB8, symBinAddr: 0x100029418, symSize: 0x0 }
  - { offsetInCU: 0x7172, offset: 0x2F05A, size: 0x8, addend: 0x0, symName: _glad_glMultiDrawArrays, symObjAddr: 0x2ADC0, symBinAddr: 0x100029420, symSize: 0x0 }
  - { offsetInCU: 0x71B0, offset: 0x2F098, size: 0x8, addend: 0x0, symName: _glad_glEndList, symObjAddr: 0x2ADC8, symBinAddr: 0x100029428, symSize: 0x0 }
  - { offsetInCU: 0x71D3, offset: 0x2F0BB, size: 0x8, addend: 0x0, symName: _glad_glVertexP4uiv, symObjAddr: 0x2ADD0, symBinAddr: 0x100029430, symSize: 0x0 }
  - { offsetInCU: 0x71F6, offset: 0x2F0DE, size: 0x8, addend: 0x0, symName: _glad_glUniform2ui, symObjAddr: 0x2ADD8, symBinAddr: 0x100029438, symSize: 0x0 }
  - { offsetInCU: 0x722F, offset: 0x2F117, size: 0x8, addend: 0x0, symName: _glad_glVertexAttribI2iv, symObjAddr: 0x2ADE0, symBinAddr: 0x100029440, symSize: 0x0 }
  - { offsetInCU: 0x7252, offset: 0x2F13A, size: 0x8, addend: 0x0, symName: _glad_glColor3usv, symObjAddr: 0x2ADE8, symBinAddr: 0x100029448, symSize: 0x0 }
  - { offsetInCU: 0x7275, offset: 0x2F15D, size: 0x8, addend: 0x0, symName: _glad_glWindowPos2fv, symObjAddr: 0x2ADF0, symBinAddr: 0x100029450, symSize: 0x0 }
  - { offsetInCU: 0x7298, offset: 0x2F180, size: 0x8, addend: 0x0, symName: _glad_glDisablei, symObjAddr: 0x2ADF8, symBinAddr: 0x100029458, symSize: 0x0 }
  - { offsetInCU: 0x72BB, offset: 0x2F1A3, size: 0x8, addend: 0x0, symName: _glad_glIndexMask, symObjAddr: 0x2AE00, symBinAddr: 0x100029460, symSize: 0x0 }
  - { offsetInCU: 0x72DE, offset: 0x2F1C6, size: 0x8, addend: 0x0, symName: _glad_glPushClientAttrib, symObjAddr: 0x2AE08, symBinAddr: 0x100029468, symSize: 0x0 }
  - { offsetInCU: 0x7301, offset: 0x2F1E9, size: 0x8, addend: 0x0, symName: _glad_glShaderSource, symObjAddr: 0x2AE10, symBinAddr: 0x100029470, symSize: 0x0 }
  - { offsetInCU: 0x733F, offset: 0x2F227, size: 0x8, addend: 0x0, symName: _glad_glGetActiveUniformBlockName, symObjAddr: 0x2AE18, symBinAddr: 0x100029478, symSize: 0x0 }
  - { offsetInCU: 0x7362, offset: 0x2F24A, size: 0x8, addend: 0x0, symName: _glad_glVertexAttribI3uiv, symObjAddr: 0x2AE20, symBinAddr: 0x100029480, symSize: 0x0 }
  - { offsetInCU: 0x7385, offset: 0x2F26D, size: 0x8, addend: 0x0, symName: _glad_glClearAccum, symObjAddr: 0x2AE28, symBinAddr: 0x100029488, symSize: 0x0 }
  - { offsetInCU: 0x73A8, offset: 0x2F290, size: 0x8, addend: 0x0, symName: _glad_glGetSynciv, symObjAddr: 0x2AE30, symBinAddr: 0x100029490, symSize: 0x0 }
  - { offsetInCU: 0x73EB, offset: 0x2F2D3, size: 0x8, addend: 0x0, symName: _glad_glTexCoordP2uiv, symObjAddr: 0x2AE38, symBinAddr: 0x100029498, symSize: 0x0 }
  - { offsetInCU: 0x740E, offset: 0x2F2F6, size: 0x8, addend: 0x0, symName: _glad_glUniform2f, symObjAddr: 0x2AE40, symBinAddr: 0x1000294A0, symSize: 0x0 }
  - { offsetInCU: 0x7431, offset: 0x2F319, size: 0x8, addend: 0x0, symName: _glad_glBeginQuery, symObjAddr: 0x2AE48, symBinAddr: 0x1000294A8, symSize: 0x0 }
  - { offsetInCU: 0x7454, offset: 0x2F33C, size: 0x8, addend: 0x0, symName: _glad_glGetUniformBlockIndex, symObjAddr: 0x2AE50, symBinAddr: 0x1000294B0, symSize: 0x0 }
  - { offsetInCU: 0x748C, offset: 0x2F374, size: 0x8, addend: 0x0, symName: _glad_glBindBuffer, symObjAddr: 0x2AE58, symBinAddr: 0x1000294B8, symSize: 0x0 }
  - { offsetInCU: 0x74AF, offset: 0x2F397, size: 0x8, addend: 0x0, symName: _glad_glMap2d, symObjAddr: 0x2AE60, symBinAddr: 0x1000294C0, symSize: 0x0 }
  - { offsetInCU: 0x750B, offset: 0x2F3F3, size: 0x8, addend: 0x0, symName: _glad_glMap2f, symObjAddr: 0x2AE68, symBinAddr: 0x1000294C8, symSize: 0x0 }
  - { offsetInCU: 0x7567, offset: 0x2F44F, size: 0x8, addend: 0x0, symName: _glad_glVertex4d, symObjAddr: 0x2AE70, symBinAddr: 0x1000294D0, symSize: 0x0 }
  - { offsetInCU: 0x758A, offset: 0x2F472, size: 0x8, addend: 0x0, symName: _glad_glUniformMatrix2fv, symObjAddr: 0x2AE78, symBinAddr: 0x1000294D8, symSize: 0x0 }
  - { offsetInCU: 0x75AD, offset: 0x2F495, size: 0x8, addend: 0x0, symName: _glad_glTexCoord1sv, symObjAddr: 0x2AE80, symBinAddr: 0x1000294E0, symSize: 0x0 }
  - { offsetInCU: 0x75D0, offset: 0x2F4B8, size: 0x8, addend: 0x0, symName: _glad_glBufferData, symObjAddr: 0x2AE88, symBinAddr: 0x1000294E8, symSize: 0x0 }
  - { offsetInCU: 0x760E, offset: 0x2F4F6, size: 0x8, addend: 0x0, symName: _glad_glEvalPoint1, symObjAddr: 0x2AE90, symBinAddr: 0x1000294F0, symSize: 0x0 }
  - { offsetInCU: 0x7631, offset: 0x2F519, size: 0x8, addend: 0x0, symName: _glad_glGetTexParameterIiv, symObjAddr: 0x2AE98, symBinAddr: 0x1000294F8, symSize: 0x0 }
  - { offsetInCU: 0x7654, offset: 0x2F53C, size: 0x8, addend: 0x0, symName: _glad_glTexCoord1dv, symObjAddr: 0x2AEA0, symBinAddr: 0x100029500, symSize: 0x0 }
  - { offsetInCU: 0x7677, offset: 0x2F55F, size: 0x8, addend: 0x0, symName: _glad_glTexCoordP1ui, symObjAddr: 0x2AEA8, symBinAddr: 0x100029508, symSize: 0x0 }
  - { offsetInCU: 0x769A, offset: 0x2F582, size: 0x8, addend: 0x0, symName: _glad_glGetError, symObjAddr: 0x2AEB0, symBinAddr: 0x100029510, symSize: 0x0 }
  - { offsetInCU: 0x76C7, offset: 0x2F5AF, size: 0x8, addend: 0x0, symName: _glad_glGetTexEnviv, symObjAddr: 0x2AEB8, symBinAddr: 0x100029518, symSize: 0x0 }
  - { offsetInCU: 0x76EA, offset: 0x2F5D2, size: 0x8, addend: 0x0, symName: _glad_glGetProgramiv, symObjAddr: 0x2AEC0, symBinAddr: 0x100029520, symSize: 0x0 }
  - { offsetInCU: 0x770D, offset: 0x2F5F5, size: 0x8, addend: 0x0, symName: _glad_glVertexAttribP2ui, symObjAddr: 0x2AEC8, symBinAddr: 0x100029528, symSize: 0x0 }
  - { offsetInCU: 0x7730, offset: 0x2F618, size: 0x8, addend: 0x0, symName: _glad_glGetFloatv, symObjAddr: 0x2AED0, symBinAddr: 0x100029530, symSize: 0x0 }
  - { offsetInCU: 0x7753, offset: 0x2F63B, size: 0x8, addend: 0x0, symName: _glad_glTexSubImage1D, symObjAddr: 0x2AED8, symBinAddr: 0x100029538, symSize: 0x0 }
  - { offsetInCU: 0x77A0, offset: 0x2F688, size: 0x8, addend: 0x0, symName: _glad_glMultiTexCoord2fv, symObjAddr: 0x2AEE0, symBinAddr: 0x100029540, symSize: 0x0 }
  - { offsetInCU: 0x77C3, offset: 0x2F6AB, size: 0x8, addend: 0x0, symName: _glad_glVertexAttrib2fv, symObjAddr: 0x2AEE8, symBinAddr: 0x100029548, symSize: 0x0 }
  - { offsetInCU: 0x77E6, offset: 0x2F6CE, size: 0x8, addend: 0x0, symName: _glad_glEvalCoord1d, symObjAddr: 0x2AEF0, symBinAddr: 0x100029550, symSize: 0x0 }
  - { offsetInCU: 0x7809, offset: 0x2F6F1, size: 0x8, addend: 0x0, symName: _glad_glGetTexLevelParameterfv, symObjAddr: 0x2AEF8, symBinAddr: 0x100029558, symSize: 0x0 }
  - { offsetInCU: 0x7847, offset: 0x2F72F, size: 0x8, addend: 0x0, symName: _glad_glEvalCoord1f, symObjAddr: 0x2AF00, symBinAddr: 0x100029560, symSize: 0x0 }
  - { offsetInCU: 0x786A, offset: 0x2F752, size: 0x8, addend: 0x0, symName: _glad_glPixelMapfv, symObjAddr: 0x2AF08, symBinAddr: 0x100029568, symSize: 0x0 }
  - { offsetInCU: 0x78A3, offset: 0x2F78B, size: 0x8, addend: 0x0, symName: _glad_glVertexAttribP3uiv, symObjAddr: 0x2AF10, symBinAddr: 0x100029570, symSize: 0x0 }
  - { offsetInCU: 0x78C6, offset: 0x2F7AE, size: 0x8, addend: 0x0, symName: _glad_glGetPixelMapusv, symObjAddr: 0x2AF18, symBinAddr: 0x100029578, symSize: 0x0 }
  - { offsetInCU: 0x78FF, offset: 0x2F7E7, size: 0x8, addend: 0x0, symName: _glad_glSecondaryColorP3uiv, symObjAddr: 0x2AF20, symBinAddr: 0x100029580, symSize: 0x0 }
  - { offsetInCU: 0x7922, offset: 0x2F80A, size: 0x8, addend: 0x0, symName: _glad_glGetIntegerv, symObjAddr: 0x2AF28, symBinAddr: 0x100029588, symSize: 0x0 }
  - { offsetInCU: 0x7956, offset: 0x2F83E, size: 0x8, addend: 0x0, symName: _glad_glAccum, symObjAddr: 0x2AF30, symBinAddr: 0x100029590, symSize: 0x0 }
  - { offsetInCU: 0x7979, offset: 0x2F861, size: 0x8, addend: 0x0, symName: _glad_glGetBufferPointerv, symObjAddr: 0x2AF38, symBinAddr: 0x100029598, symSize: 0x0 }
  - { offsetInCU: 0x79B2, offset: 0x2F89A, size: 0x8, addend: 0x0, symName: _glad_glGetVertexAttribIiv, symObjAddr: 0x2AF40, symBinAddr: 0x1000295A0, symSize: 0x0 }
  - { offsetInCU: 0x79D5, offset: 0x2F8BD, size: 0x8, addend: 0x0, symName: _glad_glRasterPos4dv, symObjAddr: 0x2AF48, symBinAddr: 0x1000295A8, symSize: 0x0 }
  - { offsetInCU: 0x79F8, offset: 0x2F8E0, size: 0x8, addend: 0x0, symName: _glad_glTexCoord2iv, symObjAddr: 0x2AF50, symBinAddr: 0x1000295B0, symSize: 0x0 }
  - { offsetInCU: 0x7A1B, offset: 0x2F903, size: 0x8, addend: 0x0, symName: _glad_glIsQuery, symObjAddr: 0x2AF58, symBinAddr: 0x1000295B8, symSize: 0x0 }
  - { offsetInCU: 0x7A3E, offset: 0x2F926, size: 0x8, addend: 0x0, symName: _glad_glVertexAttrib4sv, symObjAddr: 0x2AF60, symBinAddr: 0x1000295C0, symSize: 0x0 }
  - { offsetInCU: 0x7A61, offset: 0x2F949, size: 0x8, addend: 0x0, symName: _glad_glWindowPos3dv, symObjAddr: 0x2AF68, symBinAddr: 0x1000295C8, symSize: 0x0 }
  - { offsetInCU: 0x7A84, offset: 0x2F96C, size: 0x8, addend: 0x0, symName: _glad_glTexImage2D, symObjAddr: 0x2AF70, symBinAddr: 0x1000295D0, symSize: 0x0 }
  - { offsetInCU: 0x7ADB, offset: 0x2F9C3, size: 0x8, addend: 0x0, symName: _glad_glStencilMask, symObjAddr: 0x2AF78, symBinAddr: 0x1000295D8, symSize: 0x0 }
  - { offsetInCU: 0x7AFE, offset: 0x2F9E6, size: 0x8, addend: 0x0, symName: _glad_glDrawPixels, symObjAddr: 0x2AF80, symBinAddr: 0x1000295E0, symSize: 0x0 }
  - { offsetInCU: 0x7B41, offset: 0x2FA29, size: 0x8, addend: 0x0, symName: _glad_glMultMatrixd, symObjAddr: 0x2AF88, symBinAddr: 0x1000295E8, symSize: 0x0 }
  - { offsetInCU: 0x7B64, offset: 0x2FA4C, size: 0x8, addend: 0x0, symName: _glad_glMultMatrixf, symObjAddr: 0x2AF90, symBinAddr: 0x1000295F0, symSize: 0x0 }
  - { offsetInCU: 0x7B87, offset: 0x2FA6F, size: 0x8, addend: 0x0, symName: _glad_glIsTexture, symObjAddr: 0x2AF98, symBinAddr: 0x1000295F8, symSize: 0x0 }
  - { offsetInCU: 0x7BAA, offset: 0x2FA92, size: 0x8, addend: 0x0, symName: _glad_glGetMaterialiv, symObjAddr: 0x2AFA0, symBinAddr: 0x100029600, symSize: 0x0 }
  - { offsetInCU: 0x7BCD, offset: 0x2FAB5, size: 0x8, addend: 0x0, symName: _glad_glUniform1fv, symObjAddr: 0x2AFA8, symBinAddr: 0x100029608, symSize: 0x0 }
  - { offsetInCU: 0x7BF0, offset: 0x2FAD8, size: 0x8, addend: 0x0, symName: _glad_glLoadMatrixf, symObjAddr: 0x2AFB0, symBinAddr: 0x100029610, symSize: 0x0 }
  - { offsetInCU: 0x7C13, offset: 0x2FAFB, size: 0x8, addend: 0x0, symName: _glad_glLoadMatrixd, symObjAddr: 0x2AFB8, symBinAddr: 0x100029618, symSize: 0x0 }
  - { offsetInCU: 0x7C36, offset: 0x2FB1E, size: 0x8, addend: 0x0, symName: _glad_glTexParameterfv, symObjAddr: 0x2AFC0, symBinAddr: 0x100029620, symSize: 0x0 }
  - { offsetInCU: 0x7C59, offset: 0x2FB41, size: 0x8, addend: 0x0, symName: _glad_glUniformMatrix3fv, symObjAddr: 0x2AFC8, symBinAddr: 0x100029628, symSize: 0x0 }
  - { offsetInCU: 0x7C7C, offset: 0x2FB64, size: 0x8, addend: 0x0, symName: _glad_glVertex4f, symObjAddr: 0x2AFD0, symBinAddr: 0x100029630, symSize: 0x0 }
  - { offsetInCU: 0x7C9F, offset: 0x2FB87, size: 0x8, addend: 0x0, symName: _glad_glRectsv, symObjAddr: 0x2AFD8, symBinAddr: 0x100029638, symSize: 0x0 }
  - { offsetInCU: 0x7CD3, offset: 0x2FBBB, size: 0x8, addend: 0x0, symName: _glad_glColor4usv, symObjAddr: 0x2AFE0, symBinAddr: 0x100029640, symSize: 0x0 }
  - { offsetInCU: 0x7CF6, offset: 0x2FBDE, size: 0x8, addend: 0x0, symName: _glad_glPolygonStipple, symObjAddr: 0x2AFE8, symBinAddr: 0x100029648, symSize: 0x0 }
  - { offsetInCU: 0x7D19, offset: 0x2FC01, size: 0x8, addend: 0x0, symName: _glad_glInterleavedArrays, symObjAddr: 0x2AFF0, symBinAddr: 0x100029650, symSize: 0x0 }
  - { offsetInCU: 0x7D3C, offset: 0x2FC24, size: 0x8, addend: 0x0, symName: _glad_glNormal3i, symObjAddr: 0x2AFF8, symBinAddr: 0x100029658, symSize: 0x0 }
  - { offsetInCU: 0x7D5F, offset: 0x2FC47, size: 0x8, addend: 0x0, symName: _glad_glNormal3f, symObjAddr: 0x2B000, symBinAddr: 0x100029660, symSize: 0x0 }
  - { offsetInCU: 0x7D82, offset: 0x2FC6A, size: 0x8, addend: 0x0, symName: _glad_glNormal3d, symObjAddr: 0x2B008, symBinAddr: 0x100029668, symSize: 0x0 }
  - { offsetInCU: 0x7DA5, offset: 0x2FC8D, size: 0x8, addend: 0x0, symName: _glad_glNormal3b, symObjAddr: 0x2B010, symBinAddr: 0x100029670, symSize: 0x0 }
  - { offsetInCU: 0x7DC8, offset: 0x2FCB0, size: 0x8, addend: 0x0, symName: _glad_glPixelMapusv, symObjAddr: 0x2B018, symBinAddr: 0x100029678, symSize: 0x0 }
  - { offsetInCU: 0x7E01, offset: 0x2FCE9, size: 0x8, addend: 0x0, symName: _glad_glGetTexGeniv, symObjAddr: 0x2B020, symBinAddr: 0x100029680, symSize: 0x0 }
  - { offsetInCU: 0x7E24, offset: 0x2FD0C, size: 0x8, addend: 0x0, symName: _glad_glArrayElement, symObjAddr: 0x2B028, symBinAddr: 0x100029688, symSize: 0x0 }
  - { offsetInCU: 0x7E47, offset: 0x2FD2F, size: 0x8, addend: 0x0, symName: _glad_glCopyBufferSubData, symObjAddr: 0x2B030, symBinAddr: 0x100029690, symSize: 0x0 }
  - { offsetInCU: 0x7E8A, offset: 0x2FD72, size: 0x8, addend: 0x0, symName: _glad_glVertexAttribI1uiv, symObjAddr: 0x2B038, symBinAddr: 0x100029698, symSize: 0x0 }
  - { offsetInCU: 0x7EAD, offset: 0x2FD95, size: 0x8, addend: 0x0, symName: _glad_glVertexAttrib2d, symObjAddr: 0x2B040, symBinAddr: 0x1000296A0, symSize: 0x0 }
  - { offsetInCU: 0x7EE6, offset: 0x2FDCE, size: 0x8, addend: 0x0, symName: _glad_glVertexAttrib2f, symObjAddr: 0x2B048, symBinAddr: 0x1000296A8, symSize: 0x0 }
  - { offsetInCU: 0x7F1F, offset: 0x2FE07, size: 0x8, addend: 0x0, symName: _glad_glVertexAttrib3dv, symObjAddr: 0x2B050, symBinAddr: 0x1000296B0, symSize: 0x0 }
  - { offsetInCU: 0x7F42, offset: 0x2FE2A, size: 0x8, addend: 0x0, symName: _glad_glGetQueryObjectui64v, symObjAddr: 0x2B058, symBinAddr: 0x1000296B8, symSize: 0x0 }
  - { offsetInCU: 0x7F80, offset: 0x2FE68, size: 0x8, addend: 0x0, symName: _glad_glDepthMask, symObjAddr: 0x2B060, symBinAddr: 0x1000296C0, symSize: 0x0 }
  - { offsetInCU: 0x7FA3, offset: 0x2FE8B, size: 0x8, addend: 0x0, symName: _glad_glVertexAttrib2s, symObjAddr: 0x2B068, symBinAddr: 0x1000296C8, symSize: 0x0 }
  - { offsetInCU: 0x7FDC, offset: 0x2FEC4, size: 0x8, addend: 0x0, symName: _glad_glColor3fv, symObjAddr: 0x2B070, symBinAddr: 0x1000296D0, symSize: 0x0 }
  - { offsetInCU: 0x7FFF, offset: 0x2FEE7, size: 0x8, addend: 0x0, symName: _glad_glTexImage3DMultisample, symObjAddr: 0x2B078, symBinAddr: 0x1000296D8, symSize: 0x0 }
  - { offsetInCU: 0x804C, offset: 0x2FF34, size: 0x8, addend: 0x0, symName: _glad_glUniformMatrix4fv, symObjAddr: 0x2B080, symBinAddr: 0x1000296E0, symSize: 0x0 }
  - { offsetInCU: 0x806F, offset: 0x2FF57, size: 0x8, addend: 0x0, symName: _glad_glUniform4fv, symObjAddr: 0x2B088, symBinAddr: 0x1000296E8, symSize: 0x0 }
  - { offsetInCU: 0x8092, offset: 0x2FF7A, size: 0x8, addend: 0x0, symName: _glad_glGetActiveUniform, symObjAddr: 0x2B090, symBinAddr: 0x1000296F0, symSize: 0x0 }
  - { offsetInCU: 0x80B5, offset: 0x2FF9D, size: 0x8, addend: 0x0, symName: _glad_glColorPointer, symObjAddr: 0x2B098, symBinAddr: 0x1000296F8, symSize: 0x0 }
  - { offsetInCU: 0x80D8, offset: 0x2FFC0, size: 0x8, addend: 0x0, symName: _glad_glFrontFace, symObjAddr: 0x2B0A0, symBinAddr: 0x100029700, symSize: 0x0 }
  - { offsetInCU: 0x80FB, offset: 0x2FFE3, size: 0x8, addend: 0x0, symName: _glad_glGetBooleani_v, symObjAddr: 0x2B0A8, symBinAddr: 0x100029708, symSize: 0x0 }
  - { offsetInCU: 0x8134, offset: 0x3001C, size: 0x8, addend: 0x0, symName: _glad_glClearBufferuiv, symObjAddr: 0x2B0B0, symBinAddr: 0x100029710, symSize: 0x0 }
  - { offsetInCU: 0x816C, offset: 0x30054, size: 0x8, addend: 0x0, symName: __ZL7open_glv, symObjAddr: 0x4C, symBinAddr: 0x100011030, symSize: 0x9C }
  - { offsetInCU: 0x8196, offset: 0x3007E, size: 0x8, addend: 0x0, symName: __ZZL7open_glvE5NAMES, symObjAddr: 0x81C8, symBinAddr: 0x100028008, symSize: 0x0 }
  - { offsetInCU: 0x81CB, offset: 0x300B3, size: 0x8, addend: 0x0, symName: __ZL5libGL, symObjAddr: 0x2B0B8, symBinAddr: 0x1000297B8, symSize: 0x0 }
  - { offsetInCU: 0x81E5, offset: 0x300CD, size: 0x8, addend: 0x0, symName: __ZL16max_loaded_major, symObjAddr: 0x2B0C0, symBinAddr: 0x1000297C0, symSize: 0x0 }
  - { offsetInCU: 0x81FF, offset: 0x300E7, size: 0x8, addend: 0x0, symName: __ZL16max_loaded_minor, symObjAddr: 0x2B0C4, symBinAddr: 0x1000297C4, symSize: 0x0 }
  - { offsetInCU: 0x8219, offset: 0x30101, size: 0x8, addend: 0x0, symName: __ZL4exts, symObjAddr: 0x2B0C8, symBinAddr: 0x1000297C8, symSize: 0x0 }
  - { offsetInCU: 0x8233, offset: 0x3011B, size: 0x8, addend: 0x0, symName: __ZL10num_exts_i, symObjAddr: 0x2B0D0, symBinAddr: 0x1000297D0, symSize: 0x0 }
  - { offsetInCU: 0x824D, offset: 0x30135, size: 0x8, addend: 0x0, symName: __ZL6exts_i, symObjAddr: 0x2B0D8, symBinAddr: 0x1000297D8, symSize: 0x0 }
  - { offsetInCU: 0x8282, offset: 0x3016A, size: 0x8, addend: 0x0, symName: _gladLoadGL, symObjAddr: 0x0, symBinAddr: 0x100010FE4, symSize: 0x4C }
  - { offsetInCU: 0x82AB, offset: 0x30193, size: 0x8, addend: 0x0, symName: _gladLoadGLLoader, symObjAddr: 0xE8, symBinAddr: 0x1000110CC, symSize: 0x15C }
  - { offsetInCU: 0x82D6, offset: 0x301BE, size: 0x8, addend: 0x0, symName: __ZL8get_procPKc, symObjAddr: 0x244, symBinAddr: 0x100011228, symSize: 0x7C }
  - { offsetInCU: 0x8311, offset: 0x301F9, size: 0x8, addend: 0x0, symName: __ZL8close_glv, symObjAddr: 0x2C0, symBinAddr: 0x1000112A4, symSize: 0x4C }
  - { offsetInCU: 0x832B, offset: 0x30213, size: 0x8, addend: 0x0, symName: __ZL11find_coreGLv, symObjAddr: 0x30C, symBinAddr: 0x1000112F0, symSize: 0x5CC }
  - { offsetInCU: 0x83B2, offset: 0x3029A, size: 0x8, addend: 0x0, symName: __ZL19load_GL_VERSION_1_0PFPvPKcE, symObjAddr: 0x8D8, symBinAddr: 0x1000118BC, symSize: 0x1CEC }
  - { offsetInCU: 0x83DD, offset: 0x302C5, size: 0x8, addend: 0x0, symName: __ZL19load_GL_VERSION_1_1PFPvPKcE, symObjAddr: 0x25C4, symBinAddr: 0x1000135A8, symSize: 0x30C }
  - { offsetInCU: 0x8408, offset: 0x302F0, size: 0x8, addend: 0x0, symName: __ZL19load_GL_VERSION_1_2PFPvPKcE, symObjAddr: 0x28D0, symBinAddr: 0x1000138B4, symSize: 0x9C }
  - { offsetInCU: 0x8433, offset: 0x3031B, size: 0x8, addend: 0x0, symName: __ZL19load_GL_VERSION_1_3PFPvPKcE, symObjAddr: 0x296C, symBinAddr: 0x100013950, symSize: 0x48C }
  - { offsetInCU: 0x845E, offset: 0x30346, size: 0x8, addend: 0x0, symName: __ZL19load_GL_VERSION_1_4PFPvPKcE, symObjAddr: 0x2DF8, symBinAddr: 0x100013DDC, symSize: 0x4A4 }
  - { offsetInCU: 0x8489, offset: 0x30371, size: 0x8, addend: 0x0, symName: __ZL19load_GL_VERSION_1_5PFPvPKcE, symObjAddr: 0x329C, symBinAddr: 0x100014280, symSize: 0x204 }
  - { offsetInCU: 0x84B4, offset: 0x3039C, size: 0x8, addend: 0x0, symName: __ZL19load_GL_VERSION_2_0PFPvPKcE, symObjAddr: 0x34A0, symBinAddr: 0x100014484, symSize: 0x8F4 }
  - { offsetInCU: 0x84DF, offset: 0x303C7, size: 0x8, addend: 0x0, symName: __ZL19load_GL_VERSION_2_1PFPvPKcE, symObjAddr: 0x3D94, symBinAddr: 0x100014D78, symSize: 0xCC }
  - { offsetInCU: 0x850A, offset: 0x303F2, size: 0x8, addend: 0x0, symName: __ZL19load_GL_VERSION_3_0PFPvPKcE, symObjAddr: 0x3E60, symBinAddr: 0x100014E44, symSize: 0x81C }
  - { offsetInCU: 0x8535, offset: 0x3041D, size: 0x8, addend: 0x0, symName: __ZL19load_GL_VERSION_3_1PFPvPKcE, symObjAddr: 0x467C, symBinAddr: 0x100015660, symSize: 0x1A4 }
  - { offsetInCU: 0x8560, offset: 0x30448, size: 0x8, addend: 0x0, symName: __ZL19load_GL_VERSION_3_2PFPvPKcE, symObjAddr: 0x4820, symBinAddr: 0x100015804, symSize: 0x204 }
  - { offsetInCU: 0x858B, offset: 0x30473, size: 0x8, addend: 0x0, symName: __ZL19load_GL_VERSION_3_3PFPvPKcE, symObjAddr: 0x4A24, symBinAddr: 0x100015A08, symSize: 0x5AC }
  - { offsetInCU: 0x85B6, offset: 0x3049E, size: 0x8, addend: 0x0, symName: __ZL17find_extensionsGLv, symObjAddr: 0x4FD0, symBinAddr: 0x100015FB4, symSize: 0x48 }
  - { offsetInCU: 0x85D5, offset: 0x304BD, size: 0x8, addend: 0x0, symName: __ZL8get_extsv, symObjAddr: 0x5018, symBinAddr: 0x100015FFC, symSize: 0x194 }
  - { offsetInCU: 0x864A, offset: 0x30532, size: 0x8, addend: 0x0, symName: __ZL7has_extPKc, symObjAddr: 0x51AC, symBinAddr: 0x100016190, symSize: 0x1F4 }
  - { offsetInCU: 0x86EA, offset: 0x305D2, size: 0x8, addend: 0x0, symName: __ZL9free_extsv, symObjAddr: 0x53A0, symBinAddr: 0x100016384, symSize: 0x98 }
  - { offsetInCU: 0x8722, offset: 0x3060A, size: 0x8, addend: 0x0, symName: __Z6strstrB7v160006Ua9enable_ifIXLb1EEEPKcS0_, symObjAddr: 0x5438, symBinAddr: 0x10001641C, symSize: 0x2C }
  - { offsetInCU: 0x3F, offset: 0x306A3, size: 0x8, addend: 0x0, symName: _gScreenWidth, symObjAddr: 0xC338, symBinAddr: 0x100028028, symSize: 0x0 }
  - { offsetInCU: 0x5C, offset: 0x306C0, size: 0x8, addend: 0x0, symName: _gScreenHeight, symObjAddr: 0xC33C, symBinAddr: 0x10002802C, symSize: 0x0 }
  - { offsetInCU: 0x72, offset: 0x306D6, size: 0x8, addend: 0x0, symName: _gGraphicsApplicationWindow, symObjAddr: 0x7FDA8, symBinAddr: 0x100029718, symSize: 0x0 }
  - { offsetInCU: 0x9D, offset: 0x30701, size: 0x8, addend: 0x0, symName: _gOpenGLContext, symObjAddr: 0x7FDB0, symBinAddr: 0x100029720, symSize: 0x0 }
  - { offsetInCU: 0xBF, offset: 0x30723, size: 0x8, addend: 0x0, symName: _gQuit, symObjAddr: 0x7FDB8, symBinAddr: 0x100029728, symSize: 0x0 }
  - { offsetInCU: 0xDC, offset: 0x30740, size: 0x8, addend: 0x0, symName: _gGraphicsPipelineShaderProgram, symObjAddr: 0x7FDBC, symBinAddr: 0x10002972C, symSize: 0x0 }
  - { offsetInCU: 0xF9, offset: 0x3075D, size: 0x8, addend: 0x0, symName: _gVertexArrayObjectFloor, symObjAddr: 0x7FDC0, symBinAddr: 0x100029730, symSize: 0x0 }
  - { offsetInCU: 0x10F, offset: 0x30773, size: 0x8, addend: 0x0, symName: _gVertexBufferObjectFloor, symObjAddr: 0x7FDC4, symBinAddr: 0x100029734, symSize: 0x0 }
  - { offsetInCU: 0x125, offset: 0x30789, size: 0x8, addend: 0x0, symName: _gEBO, symObjAddr: 0x7FDC8, symBinAddr: 0x100029738, symSize: 0x0 }
  - { offsetInCU: 0x13B, offset: 0x3079F, size: 0x8, addend: 0x0, symName: _gCamera, symObjAddr: 0x7FDCC, symBinAddr: 0x10002973C, symSize: 0x0 }
  - { offsetInCU: 0x1D7, offset: 0x3083B, size: 0x8, addend: 0x0, symName: __ZN3glm9translateIfLNS_9precisionE0EEENS_7tmat4x4IT_XT0_EEERKS4_RKNS_5tvec3IS3_XT0_EEE, symObjAddr: 0x19D8, symBinAddr: 0x100017B34, symSize: 0x2B0 }
  - { offsetInCU: 0x233, offset: 0x30897, size: 0x8, addend: 0x0, symName: __ZN3glm11perspectiveIfEENS_7tmat4x4IT_LNS_9precisionE0EEES2_S2_S2_S2_, symObjAddr: 0x1E48, symBinAddr: 0x100017DE4, symSize: 0x27C }
  - { offsetInCU: 0x2AF, offset: 0x30913, size: 0x8, addend: 0x0, symName: __ZN3glm3absIfEET_S1_, symObjAddr: 0x8FB0, symBinAddr: 0x10001BDE0, symSize: 0x24 }
  - { offsetInCU: 0x322, offset: 0x30986, size: 0x8, addend: 0x0, symName: _gPolygonMode, symObjAddr: 0xC340, symBinAddr: 0x100028030, symSize: 0x0 }
  - { offsetInCU: 0x338, offset: 0x3099C, size: 0x8, addend: 0x0, symName: _gFloorResolution, symObjAddr: 0xC348, symBinAddr: 0x100028038, symSize: 0x0 }
  - { offsetInCU: 0x355, offset: 0x309B9, size: 0x8, addend: 0x0, symName: _gFloorTriangles, symObjAddr: 0x7FDF8, symBinAddr: 0x100029768, symSize: 0x0 }
  - { offsetInCU: 0x36B, offset: 0x309CF, size: 0x8, addend: 0x0, symName: _vertices, symObjAddr: 0x7FE00, symBinAddr: 0x100029770, symSize: 0x0 }
  - { offsetInCU: 0xCAE0, offset: 0x3D144, size: 0x8, addend: 0x0, symName: __ZNSt3__16copy_nB7v160006IPKcmPcEENS_9enable_ifIXsr33__is_cpp17_random_access_iteratorIT_EE5valueET1_E4typeES5_T0_S6_, symObjAddr: 0x6248, symBinAddr: 0x100019AB8, symSize: 0x44 }
  - { offsetInCU: 0xE3AC, offset: 0x3EA10, size: 0x8, addend: 0x0, symName: __ZNSt3__17advanceB7v160006IPKjllvEEvRT_T0_, symObjAddr: 0x98D4, symBinAddr: 0x10001C624, symSize: 0x50 }
  - { offsetInCU: 0xFBE6, offset: 0x4024A, size: 0x8, addend: 0x0, symName: __ZNSt3__1plB7v160006IcNS_11char_traitsIcEENS_9allocatorIcEEEENS_12basic_stringIT_T0_T1_EERKS9_S6_, symObjAddr: 0x580, symBinAddr: 0x100016840, symSize: 0x110 }
  - { offsetInCU: 0xFC83, offset: 0x402E7, size: 0x8, addend: 0x0, symName: __ZNSt3__1neB7v160006IP6VertexEEbRKNS_11__wrap_iterIT_EES7_, symObjAddr: 0x1428, symBinAddr: 0x100017584, symSize: 0x34 }
  - { offsetInCU: 0xFCC6, offset: 0x4032A, size: 0x8, addend: 0x0, symName: __ZNSt3__1lsB7v160006INS_11char_traitsIcEEEERNS_13basic_ostreamIcT_EES6_PKh, symObjAddr: 0x2274, symBinAddr: 0x1000181EC, symSize: 0x50 }
  - { offsetInCU: 0xFD1B, offset: 0x4037F, size: 0x8, addend: 0x0, symName: __ZNSt3__1neB7v160006IP8TriangleEEbRKNS_11__wrap_iterIT_EES7_, symObjAddr: 0x2B90, symBinAddr: 0x100018B08, symSize: 0x34 }
  - { offsetInCU: 0xFD5E, offset: 0x403C2, size: 0x8, addend: 0x0, symName: __ZNSt3__15beginB7v160006IKjLm3EEEPT_RAT0__S2_, symObjAddr: 0x2EE4, symBinAddr: 0x100018E5C, symSize: 0x14 }
  - { offsetInCU: 0xFD9D, offset: 0x40401, size: 0x8, addend: 0x0, symName: __ZNSt3__13endB7v160006IKjLm3EEEPT_RAT0__S2_, symObjAddr: 0x2EF8, symBinAddr: 0x100018E70, symSize: 0x18 }
  - { offsetInCU: 0xFDDC, offset: 0x40440, size: 0x8, addend: 0x0, symName: __ZNSt3__1eqB7v160006IP6VertexEEbRKNS_11__wrap_iterIT_EES7_, symObjAddr: 0x2FBC, symBinAddr: 0x100018EA8, symSize: 0x48 }
  - { offsetInCU: 0xFE1F, offset: 0x40483, size: 0x8, addend: 0x0, symName: __ZNSt3__1eqB7v160006IP8TriangleEEbRKNS_11__wrap_iterIT_EES7_, symObjAddr: 0x30C0, symBinAddr: 0x100018F08, symSize: 0x48 }
  - { offsetInCU: 0xFE62, offset: 0x404C6, size: 0x8, addend: 0x0, symName: __ZNSt3__119__debug_db_insert_cB7v160006INS_6vectorIjNS_9allocatorIjEEEEEEvPT_, symObjAddr: 0x4288, symBinAddr: 0x1000190A0, symSize: 0x10 }
  - { offsetInCU: 0xFE93, offset: 0x404F7, size: 0x8, addend: 0x0, symName: __ZNSt3__118__debug_db_erase_cB7v160006INS_6vectorIjNS_9allocatorIjEEEEEEvPT_, symObjAddr: 0x454C, symBinAddr: 0x100019364, symSize: 0x10 }
  - { offsetInCU: 0xFEC4, offset: 0x40528, size: 0x8, addend: 0x0, symName: __ZNSt3__112__to_addressB7v160006IjEEPT_S2_, symObjAddr: 0x4668, symBinAddr: 0x100019480, symSize: 0x14 }
  - { offsetInCU: 0xFEF9, offset: 0x4055D, size: 0x8, addend: 0x0, symName: __ZNSt3__14copyB7v160006IPKcPcEET0_T_S5_S4_, symObjAddr: 0x628C, symBinAddr: 0x100019AFC, symSize: 0x40 }
  - { offsetInCU: 0xFF53, offset: 0x405B7, size: 0x8, addend: 0x0, symName: __ZNSt3__16__copyB7v160006INS_17_ClassicAlgPolicyEPKcS3_PcEENS_4pairIT0_T2_EES6_T1_S7_, symObjAddr: 0x62CC, symBinAddr: 0x100019B3C, symSize: 0x44 }
  - { offsetInCU: 0xFFBF, offset: 0x40623, size: 0x8, addend: 0x0, symName: __ZNSt3__123__dispatch_copy_or_moveB7v160006INS_17_ClassicAlgPolicyENS_11__copy_loopIS1_EENS_14__copy_trivialEPKcS6_PcEENS_4pairIT2_T4_EES9_T3_SA_, symObjAddr: 0x6310, symBinAddr: 0x100019B80, symSize: 0x44 }
  - { offsetInCU: 0x1003D, offset: 0x406A1, size: 0x8, addend: 0x0, symName: __ZNSt3__121__unwrap_and_dispatchB7v160006INS_10__overloadINS_11__copy_loopINS_17_ClassicAlgPolicyEEENS_14__copy_trivialEEEPKcS8_PcLi0EEENS_4pairIT0_T2_EESB_T1_SC_, symObjAddr: 0x6354, symBinAddr: 0x100019BC4, symSize: 0xB4 }
  - { offsetInCU: 0x100CC, offset: 0x40730, size: 0x8, addend: 0x0, symName: __ZNSt3__114__unwrap_rangeB7v160006IPKcS2_EENS_4pairIT0_S4_EET_S6_, symObjAddr: 0x6408, symBinAddr: 0x100019C78, symSize: 0x60 }
  - { offsetInCU: 0x102A1, offset: 0x40905, size: 0x8, addend: 0x0, symName: __ZNSt3__113__unwrap_iterB7v160006IPcNS_18__unwrap_iter_implIS1_Lb1EEELi0EEEDTclsrT0_8__unwrapclsr3stdE7declvalIT_EEEES5_, symObjAddr: 0x64B0, symBinAddr: 0x100019D20, symSize: 0x24 }
  - { offsetInCU: 0x102E6, offset: 0x4094A, size: 0x8, addend: 0x0, symName: __ZNSt3__19make_pairB7v160006IPKcPcEENS_4pairINS_18__unwrap_ref_decayIT_E4typeENS5_IT0_E4typeEEEOS6_OS9_, symObjAddr: 0x64D4, symBinAddr: 0x100019D44, symSize: 0x38 }
  - { offsetInCU: 0x10335, offset: 0x40999, size: 0x8, addend: 0x0, symName: __ZNSt3__114__rewrap_rangeB7v160006IPKcS2_EET_S3_T0_, symObjAddr: 0x650C, symBinAddr: 0x100019D7C, symSize: 0x2C }
  - { offsetInCU: 0x10381, offset: 0x409E5, size: 0x8, addend: 0x0, symName: __ZNSt3__113__rewrap_iterB7v160006IPcS1_NS_18__unwrap_iter_implIS1_Lb1EEEEET_S4_T0_, symObjAddr: 0x6538, symBinAddr: 0x100019DA8, symSize: 0x3C }
  - { offsetInCU: 0x103D6, offset: 0x40A3A, size: 0x8, addend: 0x0, symName: __ZNSt3__19make_pairB7v160006IPKcS2_EENS_4pairINS_18__unwrap_ref_decayIT_E4typeENS4_IT0_E4typeEEEOS5_OS8_, symObjAddr: 0x6574, symBinAddr: 0x100019DE4, symSize: 0x38 }
  - { offsetInCU: 0x10425, offset: 0x40A89, size: 0x8, addend: 0x0, symName: __ZNSt3__113__unwrap_iterB7v160006IPKcNS_18__unwrap_iter_implIS2_Lb1EEELi0EEEDTclsrT0_8__unwrapclsr3stdE7declvalIT_EEEES6_, symObjAddr: 0x65AC, symBinAddr: 0x100019E1C, symSize: 0x24 }
  - { offsetInCU: 0x10593, offset: 0x40BF7, size: 0x8, addend: 0x0, symName: __ZNSt3__119__copy_trivial_implB7v160006IKccEENS_4pairIPT_PT0_EES4_S4_S6_, symObjAddr: 0x6664, symBinAddr: 0x100019ED4, symSize: 0x7C }
  - { offsetInCU: 0x105FB, offset: 0x40C5F, size: 0x8, addend: 0x0, symName: __ZNSt3__19make_pairB7v160006IRPKcPcEENS_4pairINS_18__unwrap_ref_decayIT_E4typeENS6_IT0_E4typeEEEOS7_OSA_, symObjAddr: 0x66E0, symBinAddr: 0x100019F50, symSize: 0x38 }
  - { offsetInCU: 0x1069E, offset: 0x40D02, size: 0x8, addend: 0x0, symName: __ZNSt3__113__rewrap_iterB7v160006IPKcS2_NS_18__unwrap_iter_implIS2_Lb1EEEEET_S5_T0_, symObjAddr: 0x681C, symBinAddr: 0x10001A08C, symSize: 0x3C }
  - { offsetInCU: 0x106F3, offset: 0x40D57, size: 0x8, addend: 0x0, symName: __ZNSt3__16fill_nB7v160006IPcmcEET_S2_T0_RKT1_, symObjAddr: 0x68E8, symBinAddr: 0x10001A158, symSize: 0x44 }
  - { offsetInCU: 0x10756, offset: 0x40DBA, size: 0x8, addend: 0x0, symName: __ZNSt3__18__fill_nB7v160006IPcmcEET_S2_T0_RKT1_, symObjAddr: 0x692C, symBinAddr: 0x10001A19C, symSize: 0x64 }
  - { offsetInCU: 0x107B9, offset: 0x40E1D, size: 0x8, addend: 0x0, symName: __ZNSt3__121__convert_to_integralB7v160006Em, symObjAddr: 0x6990, symBinAddr: 0x10001A200, symSize: 0x14 }
  - { offsetInCU: 0x107E5, offset: 0x40E49, size: 0x8, addend: 0x0, symName: __ZNSt3__119__debug_db_insert_cB7v160006INS_6vectorIfNS_9allocatorIfEEEEEEvPT_, symObjAddr: 0x6A38, symBinAddr: 0x10001A2A8, symSize: 0x10 }
  - { offsetInCU: 0x10816, offset: 0x40E7A, size: 0x8, addend: 0x0, symName: __ZNSt3__118__debug_db_erase_cB7v160006INS_6vectorIfNS_9allocatorIfEEEEEEvPT_, symObjAddr: 0x6CFC, symBinAddr: 0x10001A56C, symSize: 0x10 }
  - { offsetInCU: 0x10847, offset: 0x40EAB, size: 0x8, addend: 0x0, symName: __ZNSt3__112__to_addressB7v160006IfEEPT_S2_, symObjAddr: 0x6E18, symBinAddr: 0x10001A688, symSize: 0x14 }
  - { offsetInCU: 0x1087C, offset: 0x40EE0, size: 0x8, addend: 0x0, symName: __ZNSt3__119__allocate_at_leastB7v160006INS_9allocatorIfEEEENS_19__allocation_resultINS_16allocator_traitsIT_E7pointerEEERS5_m, symObjAddr: 0x7904, symBinAddr: 0x10001B024, symSize: 0x40 }
  - { offsetInCU: 0x108BF, offset: 0x40F23, size: 0x8, addend: 0x0, symName: __ZNSt3__142__uninitialized_allocator_move_if_noexceptB7v160006INS_9allocatorIfEENS_16reverse_iteratorIPfEES5_fvEET1_RT_T0_S9_S6_, symObjAddr: 0x7AB8, symBinAddr: 0x10001B1D8, symSize: 0x78 }
  - { offsetInCU: 0x1093E, offset: 0x40FA2, size: 0x8, addend: 0x0, symName: __ZNSt3__14swapB7v160006IPfEENS_9enable_ifIXaasr21is_move_constructibleIT_EE5valuesr18is_move_assignableIS3_EE5valueEvE4typeERS3_S6_, symObjAddr: 0x7B7C, symBinAddr: 0x10001B29C, symSize: 0x3C }
  - { offsetInCU: 0x1098F, offset: 0x40FF3, size: 0x8, addend: 0x0, symName: __ZNSt3__125__debug_db_invalidate_allB7v160006INS_6vectorIfNS_9allocatorIfEEEEEEvPT_, symObjAddr: 0x7C64, symBinAddr: 0x10001B384, symSize: 0x10 }
  - { offsetInCU: 0x109C0, offset: 0x41024, size: 0x8, addend: 0x0, symName: __ZNSt3__14moveB7v160006INS_16reverse_iteratorIPfEES3_EET0_T_S5_S4_, symObjAddr: 0x7C74, symBinAddr: 0x10001B394, symSize: 0x78 }
  - { offsetInCU: 0x10A1A, offset: 0x4107E, size: 0x8, addend: 0x0, symName: __ZNSt3__16__moveB7v160006INS_17_ClassicAlgPolicyENS_16reverse_iteratorIPfEES4_S4_EENS_4pairIT0_T2_EES6_T1_S7_, symObjAddr: 0x7CEC, symBinAddr: 0x10001B40C, symSize: 0x64 }
  - { offsetInCU: 0x10A86, offset: 0x410EA, size: 0x8, addend: 0x0, symName: __ZNSt3__123__dispatch_copy_or_moveB7v160006INS_17_ClassicAlgPolicyENS_11__move_loopIS1_EENS_14__move_trivialENS_16reverse_iteratorIPfEES7_S7_EENS_4pairIT2_T4_EES9_T3_SA_, symObjAddr: 0x7D50, symBinAddr: 0x10001B470, symSize: 0x64 }
  - { offsetInCU: 0x10B04, offset: 0x41168, size: 0x8, addend: 0x0, symName: __ZNSt3__121__unwrap_and_dispatchB7v160006INS_10__overloadINS_11__move_loopINS_17_ClassicAlgPolicyEEENS_14__move_trivialEEENS_16reverse_iteratorIPfEES9_S9_Li0EEENS_4pairIT0_T2_EESB_T1_SC_, symObjAddr: 0x7DB4, symBinAddr: 0x10001B4D4, symSize: 0x12C }
  - { offsetInCU: 0x10B95, offset: 0x411F9, size: 0x8, addend: 0x0, symName: __ZNSt3__114__unwrap_rangeB7v160006INS_16reverse_iteratorIPfEES3_EENS_4pairIT0_S5_EET_S7_, symObjAddr: 0x7EE0, symBinAddr: 0x10001B600, symSize: 0x84 }
  - { offsetInCU: 0x10D47, offset: 0x413AB, size: 0x8, addend: 0x0, symName: __ZNSt3__113__unwrap_iterB7v160006INS_16reverse_iteratorIPfEENS_18__unwrap_iter_implIS3_Lb0EEELi0EEEDTclsrT0_8__unwrapclsr3stdE7declvalIT_EEEES7_, symObjAddr: 0x8004, symBinAddr: 0x10001B724, symSize: 0x44 }
  - { offsetInCU: 0x10D8C, offset: 0x413F0, size: 0x8, addend: 0x0, symName: __ZNSt3__19make_pairB7v160006INS_16reverse_iteratorIPfEES3_EENS_4pairINS_18__unwrap_ref_decayIT_E4typeENS5_IT0_E4typeEEEOS6_OS9_, symObjAddr: 0x8048, symBinAddr: 0x10001B768, symSize: 0x38 }
  - { offsetInCU: 0x10DDB, offset: 0x4143F, size: 0x8, addend: 0x0, symName: __ZNSt3__114__rewrap_rangeB7v160006INS_16reverse_iteratorIPfEES3_EET_S4_T0_, symObjAddr: 0x8080, symBinAddr: 0x10001B7A0, symSize: 0x5C }
  - { offsetInCU: 0x10E27, offset: 0x4148B, size: 0x8, addend: 0x0, symName: __ZNSt3__113__rewrap_iterB7v160006INS_16reverse_iteratorIPfEES3_NS_18__unwrap_iter_implIS3_Lb0EEEEET_S6_T0_, symObjAddr: 0x80DC, symBinAddr: 0x10001B7FC, symSize: 0x74 }
  - { offsetInCU: 0x10E7C, offset: 0x414E0, size: 0x8, addend: 0x0, symName: __ZNSt3__1neB7v160006IPfS1_EEbRKNS_16reverse_iteratorIT_EERKNS2_IT0_EE, symObjAddr: 0x8150, symBinAddr: 0x10001B870, symSize: 0x48 }
  - { offsetInCU: 0x113AB, offset: 0x41A0F, size: 0x8, addend: 0x0, symName: __ZNSt3__115__debug_db_swapB7v160006INS_6vectorI6VertexNS_9allocatorIS2_EEEEEEvPT_S7_, symObjAddr: 0x91E4, symBinAddr: 0x10001BFEC, symSize: 0x14 }
  - { offsetInCU: 0x113EA, offset: 0x41A4E, size: 0x8, addend: 0x0, symName: __ZNSt3__115__debug_db_swapB7v160006INS_6vectorI8TriangleNS_9allocatorIS2_EEEEEEvPT_S7_, symObjAddr: 0x9528, symBinAddr: 0x10001C2C0, symSize: 0x14 }
  - { offsetInCU: 0x11429, offset: 0x41A8D, size: 0x8, addend: 0x0, symName: __ZNSt3__1miB7v160006IPKjPjEEDTmicldtfp_4baseEcldtfp0_4baseEERKNS_11__wrap_iterIT_EERKNS5_IT0_EE, symObjAddr: 0x9808, symBinAddr: 0x10001C558, symSize: 0x48 }
  - { offsetInCU: 0x11475, offset: 0x41AD9, size: 0x8, addend: 0x0, symName: __ZNSt3__18distanceB7v160006IPKjEENS_15iterator_traitsIT_E15difference_typeES4_S4_, symObjAddr: 0x9880, symBinAddr: 0x10001C5D0, symSize: 0x2C }
  - { offsetInCU: 0x114B8, offset: 0x41B1C, size: 0x8, addend: 0x0, symName: __ZNSt3__14copyB7v160006IPKjPjEET0_T_S5_S4_, symObjAddr: 0x9ADC, symBinAddr: 0x10001C82C, symSize: 0x40 }
  - { offsetInCU: 0x11512, offset: 0x41B76, size: 0x8, addend: 0x0, symName: __ZNSt3__110__distanceB7v160006IPKjEENS_15iterator_traitsIT_E15difference_typeES4_S4_NS_26random_access_iterator_tagE, symObjAddr: 0x9E84, symBinAddr: 0x10001CBD4, symSize: 0x28 }
  - { offsetInCU: 0x11560, offset: 0x41BC4, size: 0x8, addend: 0x0, symName: __ZNSt3__121__convert_to_integralB7v160006El, symObjAddr: 0x9EE4, symBinAddr: 0x10001CC34, symSize: 0x14 }
  - { offsetInCU: 0x1158C, offset: 0x41BF0, size: 0x8, addend: 0x0, symName: __ZNSt3__19__advanceB7v160006IPKjEEvRT_NS_15iterator_traitsIS3_E15difference_typeENS_26random_access_iterator_tagE, symObjAddr: 0x9EF8, symBinAddr: 0x10001CC48, symSize: 0x28 }
  - { offsetInCU: 0x115D6, offset: 0x41C3A, size: 0x8, addend: 0x0, symName: __ZNSt3__130__uninitialized_allocator_copyB7v160006INS_9allocatorIjEEjjLPv0EEEPT0_RT_PKS4_S9_S5_, symObjAddr: 0x9F5C, symBinAddr: 0x10001CCAC, symSize: 0x38 }
  - { offsetInCU: 0x11650, offset: 0x41CB4, size: 0x8, addend: 0x0, symName: __ZNSt3__113move_backwardB7v160006IPjS1_EET0_T_S3_S2_, symObjAddr: 0xA058, symBinAddr: 0x10001CDA8, symSize: 0x40 }
  - { offsetInCU: 0x116AA, offset: 0x41D0E, size: 0x8, addend: 0x0, symName: __ZNSt3__115__move_backwardB7v160006INS_17_ClassicAlgPolicyEPjS2_S2_EENS_4pairIT0_T2_EES4_T1_S5_, symObjAddr: 0xA0C0, symBinAddr: 0x10001CE10, symSize: 0x44 }
  - { offsetInCU: 0x11716, offset: 0x41D7A, size: 0x8, addend: 0x0, symName: __ZNSt3__123__dispatch_copy_or_moveB7v160006INS_17_ClassicAlgPolicyENS_20__move_backward_loopIS1_EENS_23__move_backward_trivialEPjS5_S5_EENS_4pairIT2_T4_EES7_T3_S8_, symObjAddr: 0xA104, symBinAddr: 0x10001CE54, symSize: 0x44 }
  - { offsetInCU: 0x11794, offset: 0x41DF8, size: 0x8, addend: 0x0, symName: __ZNSt3__121__unwrap_and_dispatchB7v160006INS_10__overloadINS_20__move_backward_loopINS_17_ClassicAlgPolicyEEENS_23__move_backward_trivialEEEPjS7_S7_Li0EEENS_4pairIT0_T2_EES9_T1_SA_, symObjAddr: 0xA148, symBinAddr: 0x10001CE98, symSize: 0xB4 }
  - { offsetInCU: 0x11823, offset: 0x41E87, size: 0x8, addend: 0x0, symName: __ZNSt3__114__unwrap_rangeB7v160006IPjS1_EENS_4pairIT0_S3_EET_S5_, symObjAddr: 0xA1FC, symBinAddr: 0x10001CF4C, symSize: 0x60 }
  - { offsetInCU: 0x119EB, offset: 0x4204F, size: 0x8, addend: 0x0, symName: __ZNSt3__113__unwrap_iterB7v160006IPjNS_18__unwrap_iter_implIS1_Lb1EEELi0EEEDTclsrT0_8__unwrapclsr3stdE7declvalIT_EEEES5_, symObjAddr: 0xA2A4, symBinAddr: 0x10001CFF4, symSize: 0x24 }
  - { offsetInCU: 0x11A30, offset: 0x42094, size: 0x8, addend: 0x0, symName: __ZNSt3__19make_pairB7v160006IPjS1_EENS_4pairINS_18__unwrap_ref_decayIT_E4typeENS3_IT0_E4typeEEEOS4_OS7_, symObjAddr: 0xA2C8, symBinAddr: 0x10001D018, symSize: 0x38 }
  - { offsetInCU: 0x11A7F, offset: 0x420E3, size: 0x8, addend: 0x0, symName: __ZNSt3__114__rewrap_rangeB7v160006IPjS1_EET_S2_T0_, symObjAddr: 0xA300, symBinAddr: 0x10001D050, symSize: 0x2C }
  - { offsetInCU: 0x11ACB, offset: 0x4212F, size: 0x8, addend: 0x0, symName: __ZNSt3__113__rewrap_iterB7v160006IPjS1_NS_18__unwrap_iter_implIS1_Lb1EEEEET_S4_T0_, symObjAddr: 0xA32C, symBinAddr: 0x10001D07C, symSize: 0x3C }
  - { offsetInCU: 0x11B20, offset: 0x42184, size: 0x8, addend: 0x0, symName: __ZNSt3__128__copy_backward_trivial_implB7v160006IjjEENS_4pairIPT_PT0_EES3_S3_S5_, symObjAddr: 0xA368, symBinAddr: 0x10001D0B8, symSize: 0x94 }
  - { offsetInCU: 0x11B88, offset: 0x421EC, size: 0x8, addend: 0x0, symName: __ZNSt3__19make_pairB7v160006IRPjS2_EENS_4pairINS_18__unwrap_ref_decayIT_E4typeENS4_IT0_E4typeEEEOS5_OS8_, symObjAddr: 0xA3FC, symBinAddr: 0x10001D14C, symSize: 0x38 }
  - { offsetInCU: 0x11C2B, offset: 0x4228F, size: 0x8, addend: 0x0, symName: __ZNSt3__16__copyB7v160006INS_17_ClassicAlgPolicyEPKjS3_PjEENS_4pairIT0_T2_EES6_T1_S7_, symObjAddr: 0xA588, symBinAddr: 0x10001D2D8, symSize: 0x44 }
  - { offsetInCU: 0x11C97, offset: 0x422FB, size: 0x8, addend: 0x0, symName: __ZNSt3__123__dispatch_copy_or_moveB7v160006INS_17_ClassicAlgPolicyENS_11__copy_loopIS1_EENS_14__copy_trivialEPKjS6_PjEENS_4pairIT2_T4_EES9_T3_SA_, symObjAddr: 0xA5CC, symBinAddr: 0x10001D31C, symSize: 0x44 }
  - { offsetInCU: 0x11D15, offset: 0x42379, size: 0x8, addend: 0x0, symName: __ZNSt3__121__unwrap_and_dispatchB7v160006INS_10__overloadINS_11__copy_loopINS_17_ClassicAlgPolicyEEENS_14__copy_trivialEEEPKjS8_PjLi0EEENS_4pairIT0_T2_EESB_T1_SC_, symObjAddr: 0xA610, symBinAddr: 0x10001D360, symSize: 0xB4 }
  - { offsetInCU: 0x11DA4, offset: 0x42408, size: 0x8, addend: 0x0, symName: __ZNSt3__114__unwrap_rangeB7v160006IPKjS2_EENS_4pairIT0_S4_EET_S6_, symObjAddr: 0xA6C4, symBinAddr: 0x10001D414, symSize: 0x60 }
  - { offsetInCU: 0x11EF5, offset: 0x42559, size: 0x8, addend: 0x0, symName: __ZNSt3__19make_pairB7v160006IPKjPjEENS_4pairINS_18__unwrap_ref_decayIT_E4typeENS5_IT0_E4typeEEEOS6_OS9_, symObjAddr: 0xA76C, symBinAddr: 0x10001D4BC, symSize: 0x38 }
  - { offsetInCU: 0x11F44, offset: 0x425A8, size: 0x8, addend: 0x0, symName: __ZNSt3__114__rewrap_rangeB7v160006IPKjS2_EET_S3_T0_, symObjAddr: 0xA7A4, symBinAddr: 0x10001D4F4, symSize: 0x2C }
  - { offsetInCU: 0x11F90, offset: 0x425F4, size: 0x8, addend: 0x0, symName: __ZNSt3__19make_pairB7v160006IPKjS2_EENS_4pairINS_18__unwrap_ref_decayIT_E4typeENS4_IT0_E4typeEEEOS5_OS8_, symObjAddr: 0xA7D0, symBinAddr: 0x10001D520, symSize: 0x38 }
  - { offsetInCU: 0x11FDF, offset: 0x42643, size: 0x8, addend: 0x0, symName: __ZNSt3__113__unwrap_iterB7v160006IPKjNS_18__unwrap_iter_implIS2_Lb1EEELi0EEEDTclsrT0_8__unwrapclsr3stdE7declvalIT_EEEES6_, symObjAddr: 0xA808, symBinAddr: 0x10001D558, symSize: 0x24 }
  - { offsetInCU: 0x1214D, offset: 0x427B1, size: 0x8, addend: 0x0, symName: __ZNSt3__112__to_addressB7v160006IKjEEPT_S3_, symObjAddr: 0xA8C0, symBinAddr: 0x10001D610, symSize: 0x14 }
  - { offsetInCU: 0x12182, offset: 0x427E6, size: 0x8, addend: 0x0, symName: __ZNSt3__119__copy_trivial_implB7v160006IKjjEENS_4pairIPT_PT0_EES4_S4_S6_, symObjAddr: 0xA8D4, symBinAddr: 0x10001D624, symSize: 0x84 }
  - { offsetInCU: 0x121EA, offset: 0x4284E, size: 0x8, addend: 0x0, symName: __ZNSt3__19make_pairB7v160006IRPKjPjEENS_4pairINS_18__unwrap_ref_decayIT_E4typeENS6_IT0_E4typeEEEOS7_OSA_, symObjAddr: 0xA958, symBinAddr: 0x10001D6A8, symSize: 0x38 }
  - { offsetInCU: 0x12239, offset: 0x4289D, size: 0x8, addend: 0x0, symName: __ZNSt3__113__rewrap_iterB7v160006IPKjS2_NS_18__unwrap_iter_implIS2_Lb1EEEEET_S5_T0_, symObjAddr: 0xAA70, symBinAddr: 0x10001D7C0, symSize: 0x3C }
  - { offsetInCU: 0x1228E, offset: 0x428F2, size: 0x8, addend: 0x0, symName: __ZNSt3__119__allocate_at_leastB7v160006INS_9allocatorIjEEEENS_19__allocation_resultINS_16allocator_traitsIT_E7pointerEEERS5_m, symObjAddr: 0xAD20, symBinAddr: 0x10001DA70, symSize: 0x40 }
  - { offsetInCU: 0x122D1, offset: 0x42935, size: 0x8, addend: 0x0, symName: __ZNSt3__142__uninitialized_allocator_move_if_noexceptB7v160006INS_9allocatorIjEENS_16reverse_iteratorIPjEES5_jvEET1_RT_T0_S9_S6_, symObjAddr: 0xAFFC, symBinAddr: 0x10001DD4C, symSize: 0x78 }
  - { offsetInCU: 0x12350, offset: 0x429B4, size: 0x8, addend: 0x0, symName: __ZNSt3__142__uninitialized_allocator_move_if_noexceptB7v160006INS_9allocatorIjEEPjS3_jvEET1_RT_T0_S7_S4_, symObjAddr: 0xB0C0, symBinAddr: 0x10001DE10, symSize: 0x38 }
  - { offsetInCU: 0x123CE, offset: 0x42A32, size: 0x8, addend: 0x0, symName: __ZNSt3__14swapB7v160006IPjEENS_9enable_ifIXaasr21is_move_constructibleIT_EE5valuesr18is_move_assignableIS3_EE5valueEvE4typeERS3_S6_, symObjAddr: 0xB0F8, symBinAddr: 0x10001DE48, symSize: 0x3C }
  - { offsetInCU: 0x1241F, offset: 0x42A83, size: 0x8, addend: 0x0, symName: __ZNSt3__125__debug_db_invalidate_allB7v160006INS_6vectorIjNS_9allocatorIjEEEEEEvPT_, symObjAddr: 0xB1E0, symBinAddr: 0x10001DF30, symSize: 0x10 }
  - { offsetInCU: 0x12450, offset: 0x42AB4, size: 0x8, addend: 0x0, symName: __ZNSt3__14moveB7v160006INS_16reverse_iteratorIPjEES3_EET0_T_S5_S4_, symObjAddr: 0xB1F0, symBinAddr: 0x10001DF40, symSize: 0x78 }
  - { offsetInCU: 0x124AA, offset: 0x42B0E, size: 0x8, addend: 0x0, symName: __ZNSt3__16__moveB7v160006INS_17_ClassicAlgPolicyENS_16reverse_iteratorIPjEES4_S4_EENS_4pairIT0_T2_EES6_T1_S7_, symObjAddr: 0xB268, symBinAddr: 0x10001DFB8, symSize: 0x64 }
  - { offsetInCU: 0x12516, offset: 0x42B7A, size: 0x8, addend: 0x0, symName: __ZNSt3__123__dispatch_copy_or_moveB7v160006INS_17_ClassicAlgPolicyENS_11__move_loopIS1_EENS_14__move_trivialENS_16reverse_iteratorIPjEES7_S7_EENS_4pairIT2_T4_EES9_T3_SA_, symObjAddr: 0xB2CC, symBinAddr: 0x10001E01C, symSize: 0x64 }
  - { offsetInCU: 0x12594, offset: 0x42BF8, size: 0x8, addend: 0x0, symName: __ZNSt3__121__unwrap_and_dispatchB7v160006INS_10__overloadINS_11__move_loopINS_17_ClassicAlgPolicyEEENS_14__move_trivialEEENS_16reverse_iteratorIPjEES9_S9_Li0EEENS_4pairIT0_T2_EESB_T1_SC_, symObjAddr: 0xB330, symBinAddr: 0x10001E080, symSize: 0x12C }
  - { offsetInCU: 0x12625, offset: 0x42C89, size: 0x8, addend: 0x0, symName: __ZNSt3__114__unwrap_rangeB7v160006INS_16reverse_iteratorIPjEES3_EENS_4pairIT0_S5_EET_S7_, symObjAddr: 0xB45C, symBinAddr: 0x10001E1AC, symSize: 0x84 }
  - { offsetInCU: 0x12746, offset: 0x42DAA, size: 0x8, addend: 0x0, symName: __ZNSt3__113__unwrap_iterB7v160006INS_16reverse_iteratorIPjEENS_18__unwrap_iter_implIS3_Lb0EEELi0EEEDTclsrT0_8__unwrapclsr3stdE7declvalIT_EEEES7_, symObjAddr: 0xB580, symBinAddr: 0x10001E2D0, symSize: 0x44 }
  - { offsetInCU: 0x1278B, offset: 0x42DEF, size: 0x8, addend: 0x0, symName: __ZNSt3__19make_pairB7v160006INS_16reverse_iteratorIPjEES3_EENS_4pairINS_18__unwrap_ref_decayIT_E4typeENS5_IT0_E4typeEEEOS6_OS9_, symObjAddr: 0xB5C4, symBinAddr: 0x10001E314, symSize: 0x38 }
  - { offsetInCU: 0x127DA, offset: 0x42E3E, size: 0x8, addend: 0x0, symName: __ZNSt3__114__rewrap_rangeB7v160006INS_16reverse_iteratorIPjEES3_EET_S4_T0_, symObjAddr: 0xB5FC, symBinAddr: 0x10001E34C, symSize: 0x5C }
  - { offsetInCU: 0x12826, offset: 0x42E8A, size: 0x8, addend: 0x0, symName: __ZNSt3__113__rewrap_iterB7v160006INS_16reverse_iteratorIPjEES3_NS_18__unwrap_iter_implIS3_Lb0EEEEET_S6_T0_, symObjAddr: 0xB658, symBinAddr: 0x10001E3A8, symSize: 0x74 }
  - { offsetInCU: 0x1287B, offset: 0x42EDF, size: 0x8, addend: 0x0, symName: __ZNSt3__1neB7v160006IPjS1_EEbRKNS_16reverse_iteratorIT_EERKNS2_IT0_EE, symObjAddr: 0xB6CC, symBinAddr: 0x10001E41C, symSize: 0x48 }
  - { offsetInCU: 0x12935, offset: 0x42F99, size: 0x8, addend: 0x0, symName: __ZNSt3__14moveB7v160006IPjS1_EET0_T_S3_S2_, symObjAddr: 0xB870, symBinAddr: 0x10001E5C0, symSize: 0x40 }
  - { offsetInCU: 0x1298F, offset: 0x42FF3, size: 0x8, addend: 0x0, symName: __ZNSt3__16__moveB7v160006INS_17_ClassicAlgPolicyEPjS2_S2_EENS_4pairIT0_T2_EES4_T1_S5_, symObjAddr: 0xB8B0, symBinAddr: 0x10001E600, symSize: 0x44 }
  - { offsetInCU: 0x129FB, offset: 0x4305F, size: 0x8, addend: 0x0, symName: __ZNSt3__123__dispatch_copy_or_moveB7v160006INS_17_ClassicAlgPolicyENS_11__move_loopIS1_EENS_14__move_trivialEPjS5_S5_EENS_4pairIT2_T4_EES7_T3_S8_, symObjAddr: 0xB8F4, symBinAddr: 0x10001E644, symSize: 0x44 }
  - { offsetInCU: 0x12A79, offset: 0x430DD, size: 0x8, addend: 0x0, symName: __ZNSt3__121__unwrap_and_dispatchB7v160006INS_10__overloadINS_11__move_loopINS_17_ClassicAlgPolicyEEENS_14__move_trivialEEEPjS7_S7_Li0EEENS_4pairIT0_T2_EES9_T1_SA_, symObjAddr: 0xB938, symBinAddr: 0x10001E688, symSize: 0xB4 }
  - { offsetInCU: 0x12B4F, offset: 0x431B3, size: 0x8, addend: 0x0, symName: __ZNSt3__119__copy_trivial_implB7v160006IjjEENS_4pairIPT_PT0_EES3_S3_S5_, symObjAddr: 0xBA34, symBinAddr: 0x10001E784, symSize: 0x84 }
  - { offsetInCU: 0x12BB7, offset: 0x4321B, size: 0x8, addend: 0x0, symName: __ZNSt3__19make_pairB7v160006IRPjS1_EENS_4pairINS_18__unwrap_ref_decayIT_E4typeENS4_IT0_E4typeEEEOS5_OS8_, symObjAddr: 0xBAB8, symBinAddr: 0x10001E808, symSize: 0x38 }
  - { offsetInCU: 0x12DCE, offset: 0x43432, size: 0x8, addend: 0x0, symName: _triangles, symObjAddr: 0x7FE18, symBinAddr: 0x100029788, symSize: 0x0 }
  - { offsetInCU: 0x12E70, offset: 0x434D4, size: 0x8, addend: 0x0, symName: _indices, symObjAddr: 0x7FE30, symBinAddr: 0x1000297A0, symSize: 0x0 }
  - { offsetInCU: 0x1301B, offset: 0x4367F, size: 0x8, addend: 0x0, symName: __Z5Inputv, symObjAddr: 0x22C4, symBinAddr: 0x10001823C, symSize: 0x41C }
  - { offsetInCU: 0x13044, offset: 0x436A8, size: 0x8, addend: 0x0, symName: __ZZ5InputvE6mouseX, symObjAddr: 0x7FE48, symBinAddr: 0x1000297E0, symSize: 0x0 }
  - { offsetInCU: 0x1305B, offset: 0x436BF, size: 0x8, addend: 0x0, symName: __ZZ5InputvE6mouseY, symObjAddr: 0x7FE58, symBinAddr: 0x1000297F0, symSize: 0x0 }
  - { offsetInCU: 0x13D50, offset: 0x443B4, size: 0x8, addend: 0x0, symName: __ZNSt3__16vectorIfNS_9allocatorIfEEE26__swap_out_circular_bufferERNS_14__split_bufferIfRS2_EE, symObjAddr: 0x744C, symBinAddr: 0x10001ACBC, symSize: 0x118 }
  - { offsetInCU: 0x13DA6, offset: 0x4440A, size: 0x8, addend: 0x0, symName: __ZNSt3__16vectorIjNS_9allocatorIjEEE26__swap_out_circular_bufferERNS_14__split_bufferIjRS2_EEPj, symObjAddr: 0x9CEC, symBinAddr: 0x10001CA3C, symSize: 0x154 }
  - { offsetInCU: 0x15B44, offset: 0x461A8, size: 0x8, addend: 0x0, symName: __ZNSt3__16vectorIjNS_9allocatorIjEEEC1B7v160006Ev, symObjAddr: 0xB0, symBinAddr: 0x100016448, symSize: 0x2C }
  - { offsetInCU: 0x15B6D, offset: 0x461D1, size: 0x8, addend: 0x0, symName: __ZNSt3__16vectorIjNS_9allocatorIjEEED1B7v160006Ev, symObjAddr: 0xDC, symBinAddr: 0x100016474, symSize: 0x2C }
  - { offsetInCU: 0x15B95, offset: 0x461F9, size: 0x8, addend: 0x0, symName: __Z18LoadShaderAsStringRKNSt3__112basic_stringIcNS_11char_traitsIcEENS_9allocatorIcEEEE, symObjAddr: 0x108, symBinAddr: 0x1000164A0, symSize: 0x200 }
  - { offsetInCU: 0x15BF6, offset: 0x4625A, size: 0x8, addend: 0x0, symName: __ZNSt3__112basic_stringIcNS_11char_traitsIcEENS_9allocatorIcEEEC1B7v160006IDnEEPKc, symObjAddr: 0x308, symBinAddr: 0x1000166A0, symSize: 0x34 }
  - { offsetInCU: 0x15D0A, offset: 0x4636E, size: 0x8, addend: 0x0, symName: __ZNSt3__114basic_ifstreamIcNS_11char_traitsIcEEEC1EPKcj, symObjAddr: 0x360, symBinAddr: 0x1000166D4, symSize: 0x16C }
  - { offsetInCU: 0x15D53, offset: 0x463B7, size: 0x8, addend: 0x0, symName: __ZNSt3__112basic_stringIcNS_11char_traitsIcEENS_9allocatorIcEEEpLB7v160006ERKS5_, symObjAddr: 0x690, symBinAddr: 0x100016950, symSize: 0x2C }
  - { offsetInCU: 0x15D8B, offset: 0x463EF, size: 0x8, addend: 0x0, symName: __Z13CompileShaderjRKNSt3__112basic_stringIcNS_11char_traitsIcEENS_9allocatorIcEEEE, symObjAddr: 0x754, symBinAddr: 0x10001697C, symSize: 0x224 }
  - { offsetInCU: 0x15E1A, offset: 0x4647E, size: 0x8, addend: 0x0, symName: __Z19CreateShaderProgramRKNSt3__112basic_stringIcNS_11char_traitsIcEENS_9allocatorIcEEEES7_, symObjAddr: 0x9C0, symBinAddr: 0x100016BA0, symSize: 0x108 }
  - { offsetInCU: 0x15E7E, offset: 0x464E2, size: 0x8, addend: 0x0, symName: __Z22CreateGraphicsPipelinev, symObjAddr: 0xAC8, symBinAddr: 0x100016CA8, symSize: 0x10C }
  - { offsetInCU: 0x15EB6, offset: 0x4651A, size: 0x8, addend: 0x0, symName: __Z17InitializeProgramv, symObjAddr: 0xBD4, symBinAddr: 0x100016DB4, symSize: 0x1D4 }
  - { offsetInCU: 0x15ECF, offset: 0x46533, size: 0x8, addend: 0x0, symName: __Z10map_linearfffff, symObjAddr: 0xE2C, symBinAddr: 0x100016F88, symSize: 0x54 }
  - { offsetInCU: 0x15F39, offset: 0x4659D, size: 0x8, addend: 0x0, symName: __Z13generatePlanem, symObjAddr: 0xE80, symBinAddr: 0x100016FDC, symSize: 0x74 }
  - { offsetInCU: 0x15F77, offset: 0x465DB, size: 0x8, addend: 0x0, symName: __Z23GeneratePlaneBufferDatav, symObjAddr: 0xEF4, symBinAddr: 0x100017050, symSize: 0xE8 }
  - { offsetInCU: 0x15FB2, offset: 0x46616, size: 0x8, addend: 0x0, symName: __ZNSt3__16vectorIfNS_9allocatorIfEEEC1B7v160006Ev, symObjAddr: 0xFDC, symBinAddr: 0x100017138, symSize: 0x2C }
  - { offsetInCU: 0x15FDB, offset: 0x4663F, size: 0x8, addend: 0x0, symName: __ZNKSt3__16vectorIfNS_9allocatorIfEEE4sizeB7v160006Ev, symObjAddr: 0x1008, symBinAddr: 0x100017164, symSize: 0x28 }
  - { offsetInCU: 0x16000, offset: 0x46664, size: 0x8, addend: 0x0, symName: __ZNSt3__16vectorIfNS_9allocatorIfEEE4dataB7v160006Ev, symObjAddr: 0x1030, symBinAddr: 0x10001718C, symSize: 0x28 }
  - { offsetInCU: 0x16025, offset: 0x46689, size: 0x8, addend: 0x0, symName: __ZNSt3__16vectorIfNS_9allocatorIfEEED1B7v160006Ev, symObjAddr: 0x1058, symBinAddr: 0x1000171B4, symSize: 0x2C }
  - { offsetInCU: 0x1604D, offset: 0x466B1, size: 0x8, addend: 0x0, symName: __Z19VertexSpecificationv, symObjAddr: 0x1084, symBinAddr: 0x1000171E0, symSize: 0x344 }
  - { offsetInCU: 0x160C4, offset: 0x46728, size: 0x8, addend: 0x0, symName: __ZNSt3__16vectorI6VertexNS_9allocatorIS1_EEE5beginB7v160006Ev, symObjAddr: 0x13C8, symBinAddr: 0x100017524, symSize: 0x30 }
  - { offsetInCU: 0x160EB, offset: 0x4674F, size: 0x8, addend: 0x0, symName: __ZNSt3__16vectorI6VertexNS_9allocatorIS1_EEE3endB7v160006Ev, symObjAddr: 0x13F8, symBinAddr: 0x100017554, symSize: 0x30 }
  - { offsetInCU: 0x16112, offset: 0x46776, size: 0x8, addend: 0x0, symName: __ZNKSt3__111__wrap_iterIP6VertexEdeB7v160006Ev, symObjAddr: 0x145C, symBinAddr: 0x1000175B8, symSize: 0x18 }
  - { offsetInCU: 0x16137, offset: 0x4679B, size: 0x8, addend: 0x0, symName: __ZNSt3__16vectorIfNS_9allocatorIfEEE9push_backB7v160006ERKf, symObjAddr: 0x1474, symBinAddr: 0x1000175D0, symSize: 0x6C }
  - { offsetInCU: 0x1616D, offset: 0x467D1, size: 0x8, addend: 0x0, symName: __ZNSt3__111__wrap_iterIP6VertexEppB7v160006Ev, symObjAddr: 0x14E0, symBinAddr: 0x10001763C, symSize: 0x20 }
  - { offsetInCU: 0x16192, offset: 0x467F6, size: 0x8, addend: 0x0, symName: __ZNKSt3__16vectorIjNS_9allocatorIjEEE4sizeB7v160006Ev, symObjAddr: 0x1500, symBinAddr: 0x10001765C, symSize: 0x28 }
  - { offsetInCU: 0x161B7, offset: 0x4681B, size: 0x8, addend: 0x0, symName: __ZNSt3__16vectorIjNS_9allocatorIjEEE4dataB7v160006Ev, symObjAddr: 0x1528, symBinAddr: 0x100017684, symSize: 0x28 }
  - { offsetInCU: 0x161DB, offset: 0x4683F, size: 0x8, addend: 0x0, symName: __Z7PreDrawv, symObjAddr: 0x1550, symBinAddr: 0x1000176AC, symSize: 0x488 }
  - { offsetInCU: 0x1625E, offset: 0x468C2, size: 0x8, addend: 0x0, symName: __Z4Drawv, symObjAddr: 0x20E8, symBinAddr: 0x100018060, symSize: 0x78 }
  - { offsetInCU: 0x16279, offset: 0x468DD, size: 0x8, addend: 0x0, symName: __Z20getOpenGLVersionInfov, symObjAddr: 0x2160, symBinAddr: 0x1000180D8, symSize: 0x114 }
  - { offsetInCU: 0x16294, offset: 0x468F8, size: 0x8, addend: 0x0, symName: __Z8MainLoopv, symObjAddr: 0x26E0, symBinAddr: 0x100018658, symSize: 0x70 }
  - { offsetInCU: 0x162AF, offset: 0x46913, size: 0x8, addend: 0x0, symName: __Z7CleanUpv, symObjAddr: 0x2750, symBinAddr: 0x1000186C8, symSize: 0x88 }
  - { offsetInCU: 0x162CA, offset: 0x4692E, size: 0x8, addend: 0x0, symName: _main, symObjAddr: 0x27D8, symBinAddr: 0x100018750, symSize: 0x2F0 }
  - { offsetInCU: 0x1637B, offset: 0x469DF, size: 0x8, addend: 0x0, symName: __ZNSt3__16vectorI6VertexNS_9allocatorIS1_EEEaSB7v160006EOS4_, symObjAddr: 0x2AC8, symBinAddr: 0x100018A40, symSize: 0x34 }
  - { offsetInCU: 0x163B1, offset: 0x46A15, size: 0x8, addend: 0x0, symName: __ZNSt3__16vectorI8TriangleNS_9allocatorIS1_EEEaSB7v160006EOS4_, symObjAddr: 0x2AFC, symBinAddr: 0x100018A74, symSize: 0x34 }
  - { offsetInCU: 0x163E7, offset: 0x46A4B, size: 0x8, addend: 0x0, symName: __ZNSt3__16vectorI8TriangleNS_9allocatorIS1_EEE5beginB7v160006Ev, symObjAddr: 0x2B30, symBinAddr: 0x100018AA8, symSize: 0x30 }
  - { offsetInCU: 0x1640E, offset: 0x46A72, size: 0x8, addend: 0x0, symName: __ZNSt3__16vectorI8TriangleNS_9allocatorIS1_EEE3endB7v160006Ev, symObjAddr: 0x2B60, symBinAddr: 0x100018AD8, symSize: 0x30 }
  - { offsetInCU: 0x16435, offset: 0x46A99, size: 0x8, addend: 0x0, symName: __ZNKSt3__111__wrap_iterIP8TriangleEdeB7v160006Ev, symObjAddr: 0x2BC4, symBinAddr: 0x100018B3C, symSize: 0x18 }
  - { offsetInCU: 0x1645A, offset: 0x46ABE, size: 0x8, addend: 0x0, symName: __ZNSt3__16vectorIjNS_9allocatorIjEEE6insertIPKjLi0EEENS_11__wrap_iterIPjEENS7_IS6_EET_SB_, symObjAddr: 0x2BDC, symBinAddr: 0x100018B54, symSize: 0x29C }
  - { offsetInCU: 0x16570, offset: 0x46BD4, size: 0x8, addend: 0x0, symName: __ZNSt3__16vectorIjNS_9allocatorIjEEE3endB7v160006Ev, symObjAddr: 0x2E78, symBinAddr: 0x100018DF0, symSize: 0x30 }
  - { offsetInCU: 0x165A1, offset: 0x46C05, size: 0x8, addend: 0x0, symName: __ZNSt3__111__wrap_iterIPKjEC1B7v160006IPjEERKNS0_IT_EEPNS_9enable_ifIXsr14is_convertibleIS6_S2_EE5valueEvE4typeE, symObjAddr: 0x2EA8, symBinAddr: 0x100018E20, symSize: 0x3C }
  - { offsetInCU: 0x165EC, offset: 0x46C50, size: 0x8, addend: 0x0, symName: __ZNSt3__111__wrap_iterIP8TriangleEppB7v160006Ev, symObjAddr: 0x2F10, symBinAddr: 0x100018E88, symSize: 0x20 }
  - { offsetInCU: 0x16611, offset: 0x46C75, size: 0x8, addend: 0x0, symName: __ZNKSt3__111__wrap_iterIP6VertexE4baseB7v160006Ev, symObjAddr: 0x3004, symBinAddr: 0x100018EF0, symSize: 0x18 }
  - { offsetInCU: 0x16636, offset: 0x46C9A, size: 0x8, addend: 0x0, symName: __ZNKSt3__111__wrap_iterIP8TriangleE4baseB7v160006Ev, symObjAddr: 0x3108, symBinAddr: 0x100018F50, symSize: 0x18 }
  - { offsetInCU: 0x1665B, offset: 0x46CBF, size: 0x8, addend: 0x0, symName: __ZNSt3__111__wrap_iterIPKjEC2B7v160006IPjEERKNS0_IT_EEPNS_9enable_ifIXsr14is_convertibleIS6_S2_EE5valueEvE4typeE, symObjAddr: 0x3120, symBinAddr: 0x100018F68, symSize: 0x40 }
  - { offsetInCU: 0x166A6, offset: 0x46D0A, size: 0x8, addend: 0x0, symName: __ZNKSt3__111__wrap_iterIPjE4baseB7v160006Ev, symObjAddr: 0x3160, symBinAddr: 0x100018FA8, symSize: 0x18 }
  - { offsetInCU: 0x166CB, offset: 0x46D2F, size: 0x8, addend: 0x0, symName: __ZNSt3__112basic_stringIcNS_11char_traitsIcEENS_9allocatorIcEEE6appendB7v160006ERKS5_, symObjAddr: 0x3178, symBinAddr: 0x100018FC0, symSize: 0x4C }
  - { offsetInCU: 0x16709, offset: 0x46D6D, size: 0x8, addend: 0x0, symName: __ZNSt3__16vectorIjNS_9allocatorIjEEEC2B7v160006Ev, symObjAddr: 0x41F4, symBinAddr: 0x10001900C, symSize: 0x58 }
  - { offsetInCU: 0x16732, offset: 0x46D96, size: 0x8, addend: 0x0, symName: __ZNSt3__117__compressed_pairIPjNS_9allocatorIjEEEC1B7v160006IDnNS_18__default_init_tagEEEOT_OT0_, symObjAddr: 0x424C, symBinAddr: 0x100019064, symSize: 0x3C }
  - { offsetInCU: 0x16789, offset: 0x46DED, size: 0x8, addend: 0x0, symName: __ZNSt3__117__compressed_pairIPjNS_9allocatorIjEEEC2B7v160006IDnNS_18__default_init_tagEEEOT_OT0_, symObjAddr: 0x4298, symBinAddr: 0x1000190B0, symSize: 0x40 }
  - { offsetInCU: 0x167E0, offset: 0x46E44, size: 0x8, addend: 0x0, symName: __ZNSt3__122__compressed_pair_elemIPjLi0ELb0EEC2B7v160006IDnvEEOT_, symObjAddr: 0x42D8, symBinAddr: 0x1000190F0, symSize: 0x1C }
  - { offsetInCU: 0x16822, offset: 0x46E86, size: 0x8, addend: 0x0, symName: __ZNSt3__122__compressed_pair_elemINS_9allocatorIjEELi1ELb1EEC2B7v160006ENS_18__default_init_tagE, symObjAddr: 0x42F4, symBinAddr: 0x10001910C, symSize: 0x2C }
  - { offsetInCU: 0x16856, offset: 0x46EBA, size: 0x8, addend: 0x0, symName: __ZNSt3__19allocatorIjEC2B7v160006Ev, symObjAddr: 0x4320, symBinAddr: 0x100019138, symSize: 0x2C }
  - { offsetInCU: 0x1687F, offset: 0x46EE3, size: 0x8, addend: 0x0, symName: __ZNSt3__116__non_trivial_ifILb1ENS_9allocatorIjEEEC2B7v160006Ev, symObjAddr: 0x434C, symBinAddr: 0x100019164, symSize: 0x14 }
  - { offsetInCU: 0x168A8, offset: 0x46F0C, size: 0x8, addend: 0x0, symName: __ZNSt3__16vectorIjNS_9allocatorIjEEED2B7v160006Ev, symObjAddr: 0x4360, symBinAddr: 0x100019178, symSize: 0x44 }
  - { offsetInCU: 0x168D1, offset: 0x46F35, size: 0x8, addend: 0x0, symName: __ZNSt3__16vectorIjNS_9allocatorIjEEE16__destroy_vectorC1ERS3_, symObjAddr: 0x43A4, symBinAddr: 0x1000191BC, symSize: 0x34 }
  - { offsetInCU: 0x16909, offset: 0x46F6D, size: 0x8, addend: 0x0, symName: __ZNSt3__16vectorIjNS_9allocatorIjEEE16__destroy_vectorclB7v160006Ev, symObjAddr: 0x43D8, symBinAddr: 0x1000191F0, symSize: 0x9C }
  - { offsetInCU: 0x1692E, offset: 0x46F92, size: 0x8, addend: 0x0, symName: __ZNSt3__16vectorIjNS_9allocatorIjEEE16__destroy_vectorC2ERS3_, symObjAddr: 0x4474, symBinAddr: 0x10001928C, symSize: 0x20 }
  - { offsetInCU: 0x16966, offset: 0x46FCA, size: 0x8, addend: 0x0, symName: __ZNKSt3__16vectorIjNS_9allocatorIjEEE17__annotate_deleteB7v160006Ev, symObjAddr: 0x4494, symBinAddr: 0x1000192AC, symSize: 0xB8 }
  - { offsetInCU: 0x1698B, offset: 0x46FEF, size: 0x8, addend: 0x0, symName: __ZNSt3__16vectorIjNS_9allocatorIjEEE7__clearB7v160006Ev, symObjAddr: 0x455C, symBinAddr: 0x100019374, symSize: 0x28 }
  - { offsetInCU: 0x169B0, offset: 0x47014, size: 0x8, addend: 0x0, symName: __ZNSt3__116allocator_traitsINS_9allocatorIjEEE10deallocateB7v160006ERS2_Pjm, symObjAddr: 0x4584, symBinAddr: 0x10001939C, symSize: 0x34 }
  - { offsetInCU: 0x169F1, offset: 0x47055, size: 0x8, addend: 0x0, symName: __ZNSt3__16vectorIjNS_9allocatorIjEEE7__allocB7v160006Ev, symObjAddr: 0x45B8, symBinAddr: 0x1000193D0, symSize: 0x28 }
  - { offsetInCU: 0x16A16, offset: 0x4707A, size: 0x8, addend: 0x0, symName: __ZNKSt3__16vectorIjNS_9allocatorIjEEE8capacityB7v160006Ev, symObjAddr: 0x45E0, symBinAddr: 0x1000193F8, symSize: 0x40 }
  - { offsetInCU: 0x16A3B, offset: 0x4709F, size: 0x8, addend: 0x0, symName: __ZNKSt3__16vectorIjNS_9allocatorIjEEE31__annotate_contiguous_containerB7v160006EPKvS5_S5_S5_, symObjAddr: 0x4620, symBinAddr: 0x100019438, symSize: 0x20 }
  - { offsetInCU: 0x16A90, offset: 0x470F4, size: 0x8, addend: 0x0, symName: __ZNKSt3__16vectorIjNS_9allocatorIjEEE4dataB7v160006Ev, symObjAddr: 0x4640, symBinAddr: 0x100019458, symSize: 0x28 }
  - { offsetInCU: 0x16AB5, offset: 0x47119, size: 0x8, addend: 0x0, symName: __ZNSt3__16vectorIjNS_9allocatorIjEEE22__base_destruct_at_endB7v160006EPj, symObjAddr: 0x467C, symBinAddr: 0x100019494, symSize: 0x8C }
  - { offsetInCU: 0x16AF8, offset: 0x4715C, size: 0x8, addend: 0x0, symName: __ZNSt3__116allocator_traitsINS_9allocatorIjEEE7destroyB7v160006IjvEEvRS2_PT_, symObjAddr: 0x4708, symBinAddr: 0x100019520, symSize: 0x2C }
  - { offsetInCU: 0x16B35, offset: 0x47199, size: 0x8, addend: 0x0, symName: __ZNSt3__19allocatorIjE7destroyB7v160006EPj, symObjAddr: 0x4734, symBinAddr: 0x10001954C, symSize: 0x14 }
  - { offsetInCU: 0x16B68, offset: 0x471CC, size: 0x8, addend: 0x0, symName: __ZNSt3__19allocatorIjE10deallocateB7v160006EPjm, symObjAddr: 0x4748, symBinAddr: 0x100019560, symSize: 0x40 }
  - { offsetInCU: 0x16BA9, offset: 0x4720D, size: 0x8, addend: 0x0, symName: __ZNSt3__117__compressed_pairIPjNS_9allocatorIjEEE6secondB7v160006Ev, symObjAddr: 0x4788, symBinAddr: 0x1000195A0, symSize: 0x24 }
  - { offsetInCU: 0x16BCE, offset: 0x47232, size: 0x8, addend: 0x0, symName: __ZNSt3__122__compressed_pair_elemINS_9allocatorIjEELi1ELb1EE5__getB7v160006Ev, symObjAddr: 0x47AC, symBinAddr: 0x1000195C4, symSize: 0x14 }
  - { offsetInCU: 0x16BF3, offset: 0x47257, size: 0x8, addend: 0x0, symName: __ZNKSt3__16vectorIjNS_9allocatorIjEEE9__end_capB7v160006Ev, symObjAddr: 0x47C0, symBinAddr: 0x1000195D8, symSize: 0x28 }
  - { offsetInCU: 0x16C18, offset: 0x4727C, size: 0x8, addend: 0x0, symName: __ZNKSt3__117__compressed_pairIPjNS_9allocatorIjEEE5firstB7v160006Ev, symObjAddr: 0x47E8, symBinAddr: 0x100019600, symSize: 0x24 }
  - { offsetInCU: 0x16C3D, offset: 0x472A1, size: 0x8, addend: 0x0, symName: __ZNKSt3__122__compressed_pair_elemIPjLi0ELb0EE5__getB7v160006Ev, symObjAddr: 0x480C, symBinAddr: 0x100019624, symSize: 0x14 }
  - { offsetInCU: 0x16C85, offset: 0x472E9, size: 0x8, addend: 0x0, symName: __ZNSt3__112basic_stringIcNS_11char_traitsIcEENS_9allocatorIcEEEC2B7v160006IDnEEPKc, symObjAddr: 0x52E0, symBinAddr: 0x100019638, symSize: 0x60 }
  - { offsetInCU: 0x16CEB, offset: 0x4734F, size: 0x8, addend: 0x0, symName: __ZNSt3__116allocator_traitsINS_9allocatorIcEEE37select_on_container_copy_constructionB7v160006IS2_vvEES2_RKS2_, symObjAddr: 0x5B4C, symBinAddr: 0x100019698, symSize: 0x10 }
  - { offsetInCU: 0x16D1C, offset: 0x47380, size: 0x8, addend: 0x0, symName: __ZNSt3__112basic_stringIcNS_11char_traitsIcEENS_9allocatorIcEEEC1B7v160006ENS_24__uninitialized_size_tagEmRKS4_, symObjAddr: 0x5B80, symBinAddr: 0x1000196A8, symSize: 0x3C }
  - { offsetInCU: 0x16D6F, offset: 0x473D3, size: 0x8, addend: 0x0, symName: __ZNSt3__111char_traitsIcE4copyEPcPKcm, symObjAddr: 0x5BBC, symBinAddr: 0x1000196E4, symSize: 0x5C }
  - { offsetInCU: 0x16DAD, offset: 0x47411, size: 0x8, addend: 0x0, symName: __ZNSt3__111char_traitsIcE6assignEPcmc, symObjAddr: 0x5C18, symBinAddr: 0x100019740, symSize: 0x44 }
  - { offsetInCU: 0x16DEB, offset: 0x4744F, size: 0x8, addend: 0x0, symName: __ZNSt3__112basic_stringIcNS_11char_traitsIcEENS_9allocatorIcEEEC2B7v160006ENS_24__uninitialized_size_tagEmRKS4_, symObjAddr: 0x5C5C, symBinAddr: 0x100019784, symSize: 0x118 }
  - { offsetInCU: 0x16E6B, offset: 0x474CF, size: 0x8, addend: 0x0, symName: __ZNKSt3__112basic_stringIcNS_11char_traitsIcEENS_9allocatorIcEEE20__throw_length_errorB7v160006Ev, symObjAddr: 0x5DB0, symBinAddr: 0x10001989C, symSize: 0x1C }
  - { offsetInCU: 0x16E90, offset: 0x474F4, size: 0x8, addend: 0x0, symName: __ZNSt3__112basic_stringIcNS_11char_traitsIcEENS_9allocatorIcEEE13__fits_in_ssoB7v160006Em, symObjAddr: 0x5DCC, symBinAddr: 0x1000198B8, symSize: 0x20 }
  - { offsetInCU: 0x16EB4, offset: 0x47518, size: 0x8, addend: 0x0, symName: __ZNSt3__112basic_stringIcNS_11char_traitsIcEENS_9allocatorIcEEE11__recommendB7v160006Em, symObjAddr: 0x5DEC, symBinAddr: 0x1000198D8, symSize: 0x84 }
  - { offsetInCU: 0x16EE6, offset: 0x4754A, size: 0x8, addend: 0x0, symName: __ZNSt3__116allocator_traitsINS_9allocatorIcEEE8allocateB7v160006ERS2_m, symObjAddr: 0x5E70, symBinAddr: 0x10001995C, symSize: 0x2C }
  - { offsetInCU: 0x16F18, offset: 0x4757C, size: 0x8, addend: 0x0, symName: __ZNSt3__112basic_stringIcNS_11char_traitsIcEENS_9allocatorIcEEE16__begin_lifetimeB7v160006EPcm, symObjAddr: 0x5EC0, symBinAddr: 0x100019988, symSize: 0x14 }
  - { offsetInCU: 0x16F4B, offset: 0x475AF, size: 0x8, addend: 0x0, symName: __ZNSt3__112basic_stringIcNS_11char_traitsIcEENS_9allocatorIcEEE14__set_long_capB7v160006Em, symObjAddr: 0x5ED4, symBinAddr: 0x10001999C, symSize: 0x70 }
  - { offsetInCU: 0x16F7F, offset: 0x475E3, size: 0x8, addend: 0x0, symName: __ZNSt3__112basic_stringIcNS_11char_traitsIcEENS_9allocatorIcEEE18__set_long_pointerB7v160006EPc, symObjAddr: 0x5F44, symBinAddr: 0x100019A0C, symSize: 0x38 }
  - { offsetInCU: 0x16FB3, offset: 0x47617, size: 0x8, addend: 0x0, symName: __ZNSt3__112basic_stringIcNS_11char_traitsIcEENS_9allocatorIcEEE10__align_itB7v160006ILm16EEEmm, symObjAddr: 0x60B8, symBinAddr: 0x100019A44, symSize: 0x1C }
  - { offsetInCU: 0x16FE1, offset: 0x47645, size: 0x8, addend: 0x0, symName: __ZNSt3__19allocatorIcE8allocateB7v160006Em, symObjAddr: 0x60D4, symBinAddr: 0x100019A60, symSize: 0x58 }
  - { offsetInCU: 0x17037, offset: 0x4769B, size: 0x8, addend: 0x0, symName: __ZNKSt3__114__copy_trivialclB7v160006IKccLi0EEENS_4pairIPT_PT0_EES5_S5_S7_, symObjAddr: 0x6468, symBinAddr: 0x100019CD8, symSize: 0x48 }
  - { offsetInCU: 0x170BD, offset: 0x47721, size: 0x8, addend: 0x0, symName: __ZNSt3__14pairIPKcS2_EC1B7v160006IS2_S2_LPv0EEEOT_OT0_, symObjAddr: 0x65D0, symBinAddr: 0x100019E40, symSize: 0x3C }
  - { offsetInCU: 0x1711B, offset: 0x4777F, size: 0x8, addend: 0x0, symName: __ZNSt3__14pairIPKcS2_EC2B7v160006IS2_S2_LPv0EEEOT_OT0_, symObjAddr: 0x660C, symBinAddr: 0x100019E7C, symSize: 0x34 }
  - { offsetInCU: 0x17179, offset: 0x477DD, size: 0x8, addend: 0x0, symName: __ZNSt3__118__unwrap_iter_implIPKcLb1EE8__unwrapB7v160006ES2_, symObjAddr: 0x6640, symBinAddr: 0x100019EB0, symSize: 0x24 }
  - { offsetInCU: 0x171A5, offset: 0x47809, size: 0x8, addend: 0x0, symName: __ZNSt3__14pairIPKcPcEC1B7v160006IRS2_S3_LPv0EEEOT_OT0_, symObjAddr: 0x6718, symBinAddr: 0x100019F88, symSize: 0x3C }
  - { offsetInCU: 0x17203, offset: 0x47867, size: 0x8, addend: 0x0, symName: __ZNSt3__14pairIPKcPcEC2B7v160006IRS2_S3_LPv0EEEOT_OT0_, symObjAddr: 0x6754, symBinAddr: 0x100019FC4, symSize: 0x34 }
  - { offsetInCU: 0x17261, offset: 0x478C5, size: 0x8, addend: 0x0, symName: __ZNSt3__118__unwrap_iter_implIPcLb1EE8__unwrapB7v160006ES1_, symObjAddr: 0x6788, symBinAddr: 0x100019FF8, symSize: 0x24 }
  - { offsetInCU: 0x17283, offset: 0x478E7, size: 0x8, addend: 0x0, symName: __ZNSt3__14pairIPKcPcEC1B7v160006IS2_S3_LPv0EEEOT_OT0_, symObjAddr: 0x67AC, symBinAddr: 0x10001A01C, symSize: 0x3C }
  - { offsetInCU: 0x172E1, offset: 0x47945, size: 0x8, addend: 0x0, symName: __ZNSt3__14pairIPKcPcEC2B7v160006IS2_S3_LPv0EEEOT_OT0_, symObjAddr: 0x67E8, symBinAddr: 0x10001A058, symSize: 0x34 }
  - { offsetInCU: 0x1733F, offset: 0x479A3, size: 0x8, addend: 0x0, symName: __ZNSt3__118__unwrap_iter_implIPKcLb1EE8__rewrapB7v160006ES2_S2_, symObjAddr: 0x6858, symBinAddr: 0x10001A0C8, symSize: 0x48 }
  - { offsetInCU: 0x1736F, offset: 0x479D3, size: 0x8, addend: 0x0, symName: __ZNSt3__118__unwrap_iter_implIPcLb1EE8__rewrapB7v160006ES1_S1_, symObjAddr: 0x68A0, symBinAddr: 0x10001A110, symSize: 0x48 }
  - { offsetInCU: 0x1739F, offset: 0x47A03, size: 0x8, addend: 0x0, symName: __ZNSt3__16vectorIfNS_9allocatorIfEEEC2B7v160006Ev, symObjAddr: 0x69A4, symBinAddr: 0x10001A214, symSize: 0x58 }
  - { offsetInCU: 0x173C8, offset: 0x47A2C, size: 0x8, addend: 0x0, symName: __ZNSt3__117__compressed_pairIPfNS_9allocatorIfEEEC1B7v160006IDnNS_18__default_init_tagEEEOT_OT0_, symObjAddr: 0x69FC, symBinAddr: 0x10001A26C, symSize: 0x3C }
  - { offsetInCU: 0x1741F, offset: 0x47A83, size: 0x8, addend: 0x0, symName: __ZNSt3__117__compressed_pairIPfNS_9allocatorIfEEEC2B7v160006IDnNS_18__default_init_tagEEEOT_OT0_, symObjAddr: 0x6A48, symBinAddr: 0x10001A2B8, symSize: 0x40 }
  - { offsetInCU: 0x17476, offset: 0x47ADA, size: 0x8, addend: 0x0, symName: __ZNSt3__122__compressed_pair_elemIPfLi0ELb0EEC2B7v160006IDnvEEOT_, symObjAddr: 0x6A88, symBinAddr: 0x10001A2F8, symSize: 0x1C }
  - { offsetInCU: 0x174B8, offset: 0x47B1C, size: 0x8, addend: 0x0, symName: __ZNSt3__122__compressed_pair_elemINS_9allocatorIfEELi1ELb1EEC2B7v160006ENS_18__default_init_tagE, symObjAddr: 0x6AA4, symBinAddr: 0x10001A314, symSize: 0x2C }
  - { offsetInCU: 0x174EC, offset: 0x47B50, size: 0x8, addend: 0x0, symName: __ZNSt3__19allocatorIfEC2B7v160006Ev, symObjAddr: 0x6AD0, symBinAddr: 0x10001A340, symSize: 0x2C }
  - { offsetInCU: 0x17515, offset: 0x47B79, size: 0x8, addend: 0x0, symName: __ZNSt3__116__non_trivial_ifILb1ENS_9allocatorIfEEEC2B7v160006Ev, symObjAddr: 0x6AFC, symBinAddr: 0x10001A36C, symSize: 0x14 }
  - { offsetInCU: 0x1753E, offset: 0x47BA2, size: 0x8, addend: 0x0, symName: __ZNSt3__16vectorIfNS_9allocatorIfEEED2B7v160006Ev, symObjAddr: 0x6B10, symBinAddr: 0x10001A380, symSize: 0x44 }
  - { offsetInCU: 0x17567, offset: 0x47BCB, size: 0x8, addend: 0x0, symName: __ZNSt3__16vectorIfNS_9allocatorIfEEE16__destroy_vectorC1ERS3_, symObjAddr: 0x6B54, symBinAddr: 0x10001A3C4, symSize: 0x34 }
  - { offsetInCU: 0x1759F, offset: 0x47C03, size: 0x8, addend: 0x0, symName: __ZNSt3__16vectorIfNS_9allocatorIfEEE16__destroy_vectorclB7v160006Ev, symObjAddr: 0x6B88, symBinAddr: 0x10001A3F8, symSize: 0x9C }
  - { offsetInCU: 0x175C4, offset: 0x47C28, size: 0x8, addend: 0x0, symName: __ZNSt3__16vectorIfNS_9allocatorIfEEE16__destroy_vectorC2ERS3_, symObjAddr: 0x6C24, symBinAddr: 0x10001A494, symSize: 0x20 }
  - { offsetInCU: 0x175FC, offset: 0x47C60, size: 0x8, addend: 0x0, symName: __ZNKSt3__16vectorIfNS_9allocatorIfEEE17__annotate_deleteB7v160006Ev, symObjAddr: 0x6C44, symBinAddr: 0x10001A4B4, symSize: 0xB8 }
  - { offsetInCU: 0x17621, offset: 0x47C85, size: 0x8, addend: 0x0, symName: __ZNSt3__16vectorIfNS_9allocatorIfEEE7__clearB7v160006Ev, symObjAddr: 0x6D0C, symBinAddr: 0x10001A57C, symSize: 0x28 }
  - { offsetInCU: 0x17646, offset: 0x47CAA, size: 0x8, addend: 0x0, symName: __ZNSt3__116allocator_traitsINS_9allocatorIfEEE10deallocateB7v160006ERS2_Pfm, symObjAddr: 0x6D34, symBinAddr: 0x10001A5A4, symSize: 0x34 }
  - { offsetInCU: 0x17687, offset: 0x47CEB, size: 0x8, addend: 0x0, symName: __ZNSt3__16vectorIfNS_9allocatorIfEEE7__allocB7v160006Ev, symObjAddr: 0x6D68, symBinAddr: 0x10001A5D8, symSize: 0x28 }
  - { offsetInCU: 0x176AC, offset: 0x47D10, size: 0x8, addend: 0x0, symName: __ZNKSt3__16vectorIfNS_9allocatorIfEEE8capacityB7v160006Ev, symObjAddr: 0x6D90, symBinAddr: 0x10001A600, symSize: 0x40 }
  - { offsetInCU: 0x176D1, offset: 0x47D35, size: 0x8, addend: 0x0, symName: __ZNKSt3__16vectorIfNS_9allocatorIfEEE31__annotate_contiguous_containerB7v160006EPKvS5_S5_S5_, symObjAddr: 0x6DD0, symBinAddr: 0x10001A640, symSize: 0x20 }
  - { offsetInCU: 0x17726, offset: 0x47D8A, size: 0x8, addend: 0x0, symName: __ZNKSt3__16vectorIfNS_9allocatorIfEEE4dataB7v160006Ev, symObjAddr: 0x6DF0, symBinAddr: 0x10001A660, symSize: 0x28 }
  - { offsetInCU: 0x1774B, offset: 0x47DAF, size: 0x8, addend: 0x0, symName: __ZNSt3__16vectorIfNS_9allocatorIfEEE22__base_destruct_at_endB7v160006EPf, symObjAddr: 0x6E2C, symBinAddr: 0x10001A69C, symSize: 0x8C }
  - { offsetInCU: 0x1778E, offset: 0x47DF2, size: 0x8, addend: 0x0, symName: __ZNSt3__116allocator_traitsINS_9allocatorIfEEE7destroyB7v160006IfvEEvRS2_PT_, symObjAddr: 0x6EB8, symBinAddr: 0x10001A728, symSize: 0x2C }
  - { offsetInCU: 0x177CB, offset: 0x47E2F, size: 0x8, addend: 0x0, symName: __ZNSt3__19allocatorIfE7destroyB7v160006EPf, symObjAddr: 0x6EE4, symBinAddr: 0x10001A754, symSize: 0x14 }
  - { offsetInCU: 0x177FE, offset: 0x47E62, size: 0x8, addend: 0x0, symName: __ZNSt3__19allocatorIfE10deallocateB7v160006EPfm, symObjAddr: 0x6EF8, symBinAddr: 0x10001A768, symSize: 0x40 }
  - { offsetInCU: 0x1783F, offset: 0x47EA3, size: 0x8, addend: 0x0, symName: __ZNSt3__117__compressed_pairIPfNS_9allocatorIfEEE6secondB7v160006Ev, symObjAddr: 0x6F38, symBinAddr: 0x10001A7A8, symSize: 0x24 }
  - { offsetInCU: 0x17864, offset: 0x47EC8, size: 0x8, addend: 0x0, symName: __ZNSt3__122__compressed_pair_elemINS_9allocatorIfEELi1ELb1EE5__getB7v160006Ev, symObjAddr: 0x6F5C, symBinAddr: 0x10001A7CC, symSize: 0x14 }
  - { offsetInCU: 0x17889, offset: 0x47EED, size: 0x8, addend: 0x0, symName: __ZNKSt3__16vectorIfNS_9allocatorIfEEE9__end_capB7v160006Ev, symObjAddr: 0x6F70, symBinAddr: 0x10001A7E0, symSize: 0x28 }
  - { offsetInCU: 0x178AE, offset: 0x47F12, size: 0x8, addend: 0x0, symName: __ZNKSt3__117__compressed_pairIPfNS_9allocatorIfEEE5firstB7v160006Ev, symObjAddr: 0x6F98, symBinAddr: 0x10001A808, symSize: 0x24 }
  - { offsetInCU: 0x178D3, offset: 0x47F37, size: 0x8, addend: 0x0, symName: __ZNKSt3__122__compressed_pair_elemIPfLi0ELb0EE5__getB7v160006Ev, symObjAddr: 0x6FBC, symBinAddr: 0x10001A82C, symSize: 0x14 }
  - { offsetInCU: 0x178F8, offset: 0x47F5C, size: 0x8, addend: 0x0, symName: __ZNSt3__16vectorI6VertexNS_9allocatorIS1_EEE11__make_iterB7v160006EPS1_, symObjAddr: 0x6FD0, symBinAddr: 0x10001A840, symSize: 0x34 }
  - { offsetInCU: 0x1792C, offset: 0x47F90, size: 0x8, addend: 0x0, symName: __ZNSt3__111__wrap_iterIP6VertexEC1B7v160006EPKvS2_, symObjAddr: 0x7004, symBinAddr: 0x10001A874, symSize: 0x3C }
  - { offsetInCU: 0x17971, offset: 0x47FD5, size: 0x8, addend: 0x0, symName: __ZNSt3__111__wrap_iterIP6VertexEC2B7v160006EPKvS2_, symObjAddr: 0x7040, symBinAddr: 0x10001A8B0, symSize: 0x24 }
  - { offsetInCU: 0x179B6, offset: 0x4801A, size: 0x8, addend: 0x0, symName: __ZNSt3__16vectorIfNS_9allocatorIfEEE9__end_capB7v160006Ev, symObjAddr: 0x7064, symBinAddr: 0x10001A8D4, symSize: 0x28 }
  - { offsetInCU: 0x179DB, offset: 0x4803F, size: 0x8, addend: 0x0, symName: __ZNSt3__16vectorIfNS_9allocatorIfEEE22__construct_one_at_endB7v160006IJRKfEEEvDpOT_, symObjAddr: 0x708C, symBinAddr: 0x10001A8FC, symSize: 0x90 }
  - { offsetInCU: 0x17A2B, offset: 0x4808F, size: 0x8, addend: 0x0, symName: __ZNSt3__16vectorIfNS_9allocatorIfEEE21__push_back_slow_pathIRKfEEvOT_, symObjAddr: 0x711C, symBinAddr: 0x10001A98C, symSize: 0xD8 }
  - { offsetInCU: 0x17A88, offset: 0x480EC, size: 0x8, addend: 0x0, symName: __ZNSt3__117__compressed_pairIPfNS_9allocatorIfEEE5firstB7v160006Ev, symObjAddr: 0x71F4, symBinAddr: 0x10001AA64, symSize: 0x24 }
  - { offsetInCU: 0x17AAD, offset: 0x48111, size: 0x8, addend: 0x0, symName: __ZNSt3__122__compressed_pair_elemIPfLi0ELb0EE5__getB7v160006Ev, symObjAddr: 0x7218, symBinAddr: 0x10001AA88, symSize: 0x14 }
  - { offsetInCU: 0x17AEB, offset: 0x4814F, size: 0x8, addend: 0x0, symName: __ZNSt3__16vectorIfNS_9allocatorIfEEE21_ConstructTransactionC1B7v160006ERS3_m, symObjAddr: 0x722C, symBinAddr: 0x10001AA9C, symSize: 0x3C }
  - { offsetInCU: 0x17B32, offset: 0x48196, size: 0x8, addend: 0x0, symName: __ZNSt3__116allocator_traitsINS_9allocatorIfEEE9constructB7v160006IfJRKfEvEEvRS2_PT_DpOT0_, symObjAddr: 0x7268, symBinAddr: 0x10001AAD8, symSize: 0x34 }
  - { offsetInCU: 0x17B8B, offset: 0x481EF, size: 0x8, addend: 0x0, symName: __ZNSt3__16vectorIfNS_9allocatorIfEEE21_ConstructTransactionD1B7v160006Ev, symObjAddr: 0x729C, symBinAddr: 0x10001AB0C, symSize: 0x2C }
  - { offsetInCU: 0x17BB4, offset: 0x48218, size: 0x8, addend: 0x0, symName: __ZNSt3__16vectorIfNS_9allocatorIfEEE21_ConstructTransactionC2B7v160006ERS3_m, symObjAddr: 0x72C8, symBinAddr: 0x10001AB38, symSize: 0x44 }
  - { offsetInCU: 0x17BFB, offset: 0x4825F, size: 0x8, addend: 0x0, symName: __ZNSt3__19allocatorIfE9constructB7v160006IfJRKfEEEvPT_DpOT0_, symObjAddr: 0x730C, symBinAddr: 0x10001AB7C, symSize: 0x28 }
  - { offsetInCU: 0x17C52, offset: 0x482B6, size: 0x8, addend: 0x0, symName: __ZNSt3__16vectorIfNS_9allocatorIfEEE21_ConstructTransactionD2B7v160006Ev, symObjAddr: 0x7334, symBinAddr: 0x10001ABA4, symSize: 0x20 }
  - { offsetInCU: 0x17C7B, offset: 0x482DF, size: 0x8, addend: 0x0, symName: __ZNKSt3__16vectorIfNS_9allocatorIfEEE11__recommendB7v160006Em, symObjAddr: 0x7354, symBinAddr: 0x10001ABC4, symSize: 0xB4 }
  - { offsetInCU: 0x17CCF, offset: 0x48333, size: 0x8, addend: 0x0, symName: __ZNSt3__114__split_bufferIfRNS_9allocatorIfEEEC1EmmS3_, symObjAddr: 0x7408, symBinAddr: 0x10001AC78, symSize: 0x44 }
  - { offsetInCU: 0x17D24, offset: 0x48388, size: 0x8, addend: 0x0, symName: __ZNSt3__114__split_bufferIfRNS_9allocatorIfEEED1Ev, symObjAddr: 0x7564, symBinAddr: 0x10001ADD4, symSize: 0x2C }
  - { offsetInCU: 0x17D4F, offset: 0x483B3, size: 0x8, addend: 0x0, symName: __ZNKSt3__16vectorIfNS_9allocatorIfEEE8max_sizeEv, symObjAddr: 0x7590, symBinAddr: 0x10001AE00, symSize: 0x60 }
  - { offsetInCU: 0x17D76, offset: 0x483DA, size: 0x8, addend: 0x0, symName: __ZNKSt3__16vectorIfNS_9allocatorIfEEE20__throw_length_errorB7v160006Ev, symObjAddr: 0x75F0, symBinAddr: 0x10001AE60, symSize: 0x1C }
  - { offsetInCU: 0x17DA5, offset: 0x48409, size: 0x8, addend: 0x0, symName: __ZNSt3__116allocator_traitsINS_9allocatorIfEEE8max_sizeB7v160006IS2_vEEmRKS2_, symObjAddr: 0x7664, symBinAddr: 0x10001AE7C, symSize: 0x24 }
  - { offsetInCU: 0x17DD3, offset: 0x48437, size: 0x8, addend: 0x0, symName: __ZNKSt3__16vectorIfNS_9allocatorIfEEE7__allocB7v160006Ev, symObjAddr: 0x7688, symBinAddr: 0x10001AEA0, symSize: 0x28 }
  - { offsetInCU: 0x17DF8, offset: 0x4845C, size: 0x8, addend: 0x0, symName: __ZNKSt3__19allocatorIfE8max_sizeB7v160006Ev, symObjAddr: 0x774C, symBinAddr: 0x10001AEC8, symSize: 0x14 }
  - { offsetInCU: 0x17E1D, offset: 0x48481, size: 0x8, addend: 0x0, symName: __ZNKSt3__117__compressed_pairIPfNS_9allocatorIfEEE6secondB7v160006Ev, symObjAddr: 0x7760, symBinAddr: 0x10001AEDC, symSize: 0x24 }
  - { offsetInCU: 0x17E42, offset: 0x484A6, size: 0x8, addend: 0x0, symName: __ZNKSt3__122__compressed_pair_elemINS_9allocatorIfEELi1ELb1EE5__getB7v160006Ev, symObjAddr: 0x7784, symBinAddr: 0x10001AF00, symSize: 0x14 }
  - { offsetInCU: 0x17E67, offset: 0x484CB, size: 0x8, addend: 0x0, symName: __ZNSt3__114__split_bufferIfRNS_9allocatorIfEEEC2EmmS3_, symObjAddr: 0x77F4, symBinAddr: 0x10001AF14, symSize: 0xD4 }
  - { offsetInCU: 0x17EDA, offset: 0x4853E, size: 0x8, addend: 0x0, symName: __ZNSt3__117__compressed_pairIPfRNS_9allocatorIfEEEC1B7v160006IDnS4_EEOT_OT0_, symObjAddr: 0x78C8, symBinAddr: 0x10001AFE8, symSize: 0x3C }
  - { offsetInCU: 0x17F31, offset: 0x48595, size: 0x8, addend: 0x0, symName: __ZNSt3__114__split_bufferIfRNS_9allocatorIfEEE7__allocB7v160006Ev, symObjAddr: 0x7944, symBinAddr: 0x10001B064, symSize: 0x28 }
  - { offsetInCU: 0x17F56, offset: 0x485BA, size: 0x8, addend: 0x0, symName: __ZNSt3__114__split_bufferIfRNS_9allocatorIfEEE9__end_capB7v160006Ev, symObjAddr: 0x796C, symBinAddr: 0x10001B08C, symSize: 0x28 }
  - { offsetInCU: 0x17F7B, offset: 0x485DF, size: 0x8, addend: 0x0, symName: __ZNSt3__117__compressed_pairIPfRNS_9allocatorIfEEEC2B7v160006IDnS4_EEOT_OT0_, symObjAddr: 0x7994, symBinAddr: 0x10001B0B4, symSize: 0x48 }
  - { offsetInCU: 0x17FD2, offset: 0x48636, size: 0x8, addend: 0x0, symName: __ZNSt3__122__compressed_pair_elemIRNS_9allocatorIfEELi1ELb0EEC2B7v160006IS3_vEEOT_, symObjAddr: 0x79DC, symBinAddr: 0x10001B0FC, symSize: 0x20 }
  - { offsetInCU: 0x18014, offset: 0x48678, size: 0x8, addend: 0x0, symName: __ZNSt3__19allocatorIfE8allocateB7v160006Em, symObjAddr: 0x79FC, symBinAddr: 0x10001B11C, symSize: 0x58 }
  - { offsetInCU: 0x18047, offset: 0x486AB, size: 0x8, addend: 0x0, symName: __ZNSt3__117__compressed_pairIPfRNS_9allocatorIfEEE6secondB7v160006Ev, symObjAddr: 0x7A54, symBinAddr: 0x10001B174, symSize: 0x28 }
  - { offsetInCU: 0x1806C, offset: 0x486D0, size: 0x8, addend: 0x0, symName: __ZNSt3__122__compressed_pair_elemIRNS_9allocatorIfEELi1ELb0EE5__getB7v160006Ev, symObjAddr: 0x7A7C, symBinAddr: 0x10001B19C, symSize: 0x18 }
  - { offsetInCU: 0x18091, offset: 0x486F5, size: 0x8, addend: 0x0, symName: __ZNSt3__117__compressed_pairIPfRNS_9allocatorIfEEE5firstB7v160006Ev, symObjAddr: 0x7A94, symBinAddr: 0x10001B1B4, symSize: 0x24 }
  - { offsetInCU: 0x180B6, offset: 0x4871A, size: 0x8, addend: 0x0, symName: __ZNSt3__116reverse_iteratorIPfEC1B7v160006ES1_, symObjAddr: 0x7B30, symBinAddr: 0x10001B250, symSize: 0x34 }
  - { offsetInCU: 0x180ED, offset: 0x48751, size: 0x8, addend: 0x0, symName: __ZNKSt3__116reverse_iteratorIPfE4baseB7v160006Ev, symObjAddr: 0x7B64, symBinAddr: 0x10001B284, symSize: 0x18 }
  - { offsetInCU: 0x18112, offset: 0x48776, size: 0x8, addend: 0x0, symName: __ZNKSt3__16vectorIfNS_9allocatorIfEEE14__annotate_newB7v160006Em, symObjAddr: 0x7BB8, symBinAddr: 0x10001B2D8, symSize: 0xAC }
  - { offsetInCU: 0x18169, offset: 0x487CD, size: 0x8, addend: 0x0, symName: __ZNKSt3__111__move_loopINS_17_ClassicAlgPolicyEEclB7v160006INS_16reverse_iteratorIPfEES6_S6_EENS_4pairIT_T1_EES8_T0_S9_, symObjAddr: 0x7F64, symBinAddr: 0x10001B684, symSize: 0xA0 }
  - { offsetInCU: 0x181D8, offset: 0x4883C, size: 0x8, addend: 0x0, symName: __ZNSt3__18_IterOpsINS_17_ClassicAlgPolicyEE11__iter_moveB7v160006IRNS_16reverse_iteratorIPfEEEENS_9enable_ifIXsr12is_referenceIDTdeclsr3stdE7declvalIRT_EEEEE5valueEDTclsr3stdE4movedeclsr3stdE7declvalISA_EEEEE4typeEOS9_, symObjAddr: 0x8198, symBinAddr: 0x10001B8B8, symSize: 0x28 }
  - { offsetInCU: 0x18203, offset: 0x48867, size: 0x8, addend: 0x0, symName: __ZNKSt3__116reverse_iteratorIPfEdeB7v160006Ev, symObjAddr: 0x81C0, symBinAddr: 0x10001B8E0, symSize: 0x28 }
  - { offsetInCU: 0x18236, offset: 0x4889A, size: 0x8, addend: 0x0, symName: __ZNSt3__116reverse_iteratorIPfEppB7v160006Ev, symObjAddr: 0x81E8, symBinAddr: 0x10001B908, symSize: 0x20 }
  - { offsetInCU: 0x1825B, offset: 0x488BF, size: 0x8, addend: 0x0, symName: __ZNSt3__18_IterOpsINS_17_ClassicAlgPolicyEE25__validate_iter_referenceB7v160006IRNS_16reverse_iteratorIPfEEEEvv, symObjAddr: 0x8208, symBinAddr: 0x10001B928, symSize: 0x4 }
  - { offsetInCU: 0x18279, offset: 0x488DD, size: 0x8, addend: 0x0, symName: __ZNSt3__118__unwrap_iter_implINS_16reverse_iteratorIPfEELb0EE8__unwrapB7v160006ES3_, symObjAddr: 0x820C, symBinAddr: 0x10001B92C, symSize: 0x24 }
  - { offsetInCU: 0x182A1, offset: 0x48905, size: 0x8, addend: 0x0, symName: __ZNSt3__14pairINS_16reverse_iteratorIPfEES3_EC1B7v160006IS3_S3_LPv0EEEOT_OT0_, symObjAddr: 0x8230, symBinAddr: 0x10001B950, symSize: 0x3C }
  - { offsetInCU: 0x182FF, offset: 0x48963, size: 0x8, addend: 0x0, symName: __ZNSt3__14pairINS_16reverse_iteratorIPfEES3_EC2B7v160006IS3_S3_LPv0EEEOT_OT0_, symObjAddr: 0x826C, symBinAddr: 0x10001B98C, symSize: 0x34 }
  - { offsetInCU: 0x1835D, offset: 0x489C1, size: 0x8, addend: 0x0, symName: __ZNSt3__118__unwrap_iter_implINS_16reverse_iteratorIPfEELb0EE8__rewrapB7v160006ES3_S3_, symObjAddr: 0x82A0, symBinAddr: 0x10001B9C0, symSize: 0x2C }
  - { offsetInCU: 0x1838B, offset: 0x489EF, size: 0x8, addend: 0x0, symName: __ZNSt3__116reverse_iteratorIPfEC2B7v160006ES1_, symObjAddr: 0x82CC, symBinAddr: 0x10001B9EC, symSize: 0x28 }
  - { offsetInCU: 0x183C2, offset: 0x48A26, size: 0x8, addend: 0x0, symName: __ZNSt3__114__split_bufferIfRNS_9allocatorIfEEED2Ev, symObjAddr: 0x82F4, symBinAddr: 0x10001BA14, symSize: 0x8C }
  - { offsetInCU: 0x183ED, offset: 0x48A51, size: 0x8, addend: 0x0, symName: __ZNSt3__114__split_bufferIfRNS_9allocatorIfEEE5clearB7v160006Ev, symObjAddr: 0x8380, symBinAddr: 0x10001BAA0, symSize: 0x28 }
  - { offsetInCU: 0x18412, offset: 0x48A76, size: 0x8, addend: 0x0, symName: __ZNKSt3__114__split_bufferIfRNS_9allocatorIfEEE8capacityB7v160006Ev, symObjAddr: 0x83A8, symBinAddr: 0x10001BAC8, symSize: 0x40 }
  - { offsetInCU: 0x18437, offset: 0x48A9B, size: 0x8, addend: 0x0, symName: __ZNSt3__114__split_bufferIfRNS_9allocatorIfEEE17__destruct_at_endB7v160006EPf, symObjAddr: 0x83E8, symBinAddr: 0x10001BB08, symSize: 0x2C }
  - { offsetInCU: 0x1846A, offset: 0x48ACE, size: 0x8, addend: 0x0, symName: __ZNSt3__114__split_bufferIfRNS_9allocatorIfEEE17__destruct_at_endB7v160006EPfNS_17integral_constantIbLb0EEE, symObjAddr: 0x8414, symBinAddr: 0x10001BB34, symSize: 0x80 }
  - { offsetInCU: 0x184AA, offset: 0x48B0E, size: 0x8, addend: 0x0, symName: __ZNKSt3__114__split_bufferIfRNS_9allocatorIfEEE9__end_capB7v160006Ev, symObjAddr: 0x8494, symBinAddr: 0x10001BBB4, symSize: 0x28 }
  - { offsetInCU: 0x184CF, offset: 0x48B33, size: 0x8, addend: 0x0, symName: __ZNKSt3__117__compressed_pairIPfRNS_9allocatorIfEEE5firstB7v160006Ev, symObjAddr: 0x84BC, symBinAddr: 0x10001BBDC, symSize: 0x24 }
  - { offsetInCU: 0x184F4, offset: 0x48B58, size: 0x8, addend: 0x0, symName: __ZN3glm7tmat4x4IfLNS_9precisionE0EEC1ERKS2_, symObjAddr: 0x8AA0, symBinAddr: 0x10001BC00, symSize: 0x34 }
  - { offsetInCU: 0x1852C, offset: 0x48B90, size: 0x8, addend: 0x0, symName: __ZN3glm7tmat4x4IfLNS_9precisionE0EEC2ERKS2_, symObjAddr: 0x8CF0, symBinAddr: 0x10001BC34, symSize: 0x1AC }
  - { offsetInCU: 0x18564, offset: 0x48BC8, size: 0x8, addend: 0x0, symName: __ZNSt3__114numeric_limitsIfE7epsilonB7v160006Ev, symObjAddr: 0x8FD4, symBinAddr: 0x10001BE04, symSize: 0x14 }
  - { offsetInCU: 0x18577, offset: 0x48BDB, size: 0x8, addend: 0x0, symName: __Z3tanB7v160006f, symObjAddr: 0x8FE8, symBinAddr: 0x10001BE18, symSize: 0x24 }
  - { offsetInCU: 0x185A6, offset: 0x48C0A, size: 0x8, addend: 0x0, symName: __ZN3glm6detail11compute_absIfLb1EE4callEf, symObjAddr: 0x900C, symBinAddr: 0x10001BE3C, symSize: 0x44 }
  - { offsetInCU: 0x185C9, offset: 0x48C2D, size: 0x8, addend: 0x0, symName: __ZNSt3__123__libcpp_numeric_limitsIfLb1EE7epsilonB7v160006Ev, symObjAddr: 0x9050, symBinAddr: 0x10001BE80, symSize: 0x8 }
  - { offsetInCU: 0x185DD, offset: 0x48C41, size: 0x8, addend: 0x0, symName: __ZNSt3__16vectorI6VertexNS_9allocatorIS1_EEE13__move_assignERS4_NS_17integral_constantIbLb1EEE, symObjAddr: 0x9058, symBinAddr: 0x10001BE88, symSize: 0xAC }
  - { offsetInCU: 0x1861F, offset: 0x48C83, size: 0x8, addend: 0x0, symName: __ZNSt3__16vectorI6VertexNS_9allocatorIS1_EEE13__vdeallocateEv, symObjAddr: 0x9104, symBinAddr: 0x10001BF34, symSize: 0x8C }
  - { offsetInCU: 0x18646, offset: 0x48CAA, size: 0x8, addend: 0x0, symName: __ZNSt3__16vectorI6VertexNS_9allocatorIS1_EEE19__move_assign_allocB7v160006ERS4_, symObjAddr: 0x9190, symBinAddr: 0x10001BFC0, symSize: 0x2C }
  - { offsetInCU: 0x1867A, offset: 0x48CDE, size: 0x8, addend: 0x0, symName: __ZNSt3__16vectorI6VertexNS_9allocatorIS1_EEE5clearB7v160006Ev, symObjAddr: 0x91F8, symBinAddr: 0x10001C000, symSize: 0x54 }
  - { offsetInCU: 0x186AE, offset: 0x48D12, size: 0x8, addend: 0x0, symName: __ZNKSt3__16vectorI6VertexNS_9allocatorIS1_EEE17__annotate_shrinkB7v160006Em, symObjAddr: 0x924C, symBinAddr: 0x10001C054, symSize: 0xD0 }
  - { offsetInCU: 0x186E2, offset: 0x48D46, size: 0x8, addend: 0x0, symName: __ZNSt3__16vectorI6VertexNS_9allocatorIS1_EEE19__move_assign_allocB7v160006ERS4_NS_17integral_constantIbLb1EEE, symObjAddr: 0x932C, symBinAddr: 0x10001C124, symSize: 0x38 }
  - { offsetInCU: 0x18722, offset: 0x48D86, size: 0x8, addend: 0x0, symName: __ZNSt3__16vectorI8TriangleNS_9allocatorIS1_EEE13__move_assignERS4_NS_17integral_constantIbLb1EEE, symObjAddr: 0x939C, symBinAddr: 0x10001C15C, symSize: 0xAC }
  - { offsetInCU: 0x18764, offset: 0x48DC8, size: 0x8, addend: 0x0, symName: __ZNSt3__16vectorI8TriangleNS_9allocatorIS1_EEE13__vdeallocateEv, symObjAddr: 0x9448, symBinAddr: 0x10001C208, symSize: 0x8C }
  - { offsetInCU: 0x1878B, offset: 0x48DEF, size: 0x8, addend: 0x0, symName: __ZNSt3__16vectorI8TriangleNS_9allocatorIS1_EEE19__move_assign_allocB7v160006ERS4_, symObjAddr: 0x94D4, symBinAddr: 0x10001C294, symSize: 0x2C }
  - { offsetInCU: 0x187BF, offset: 0x48E23, size: 0x8, addend: 0x0, symName: __ZNSt3__16vectorI8TriangleNS_9allocatorIS1_EEE5clearB7v160006Ev, symObjAddr: 0x953C, symBinAddr: 0x10001C2D4, symSize: 0x54 }
  - { offsetInCU: 0x187F3, offset: 0x48E57, size: 0x8, addend: 0x0, symName: __ZNKSt3__16vectorI8TriangleNS_9allocatorIS1_EEE17__annotate_shrinkB7v160006Em, symObjAddr: 0x9590, symBinAddr: 0x10001C328, symSize: 0xD0 }
  - { offsetInCU: 0x18827, offset: 0x48E8B, size: 0x8, addend: 0x0, symName: __ZNSt3__16vectorI8TriangleNS_9allocatorIS1_EEE19__move_assign_allocB7v160006ERS4_NS_17integral_constantIbLb1EEE, symObjAddr: 0x9670, symBinAddr: 0x10001C3F8, symSize: 0x38 }
  - { offsetInCU: 0x18867, offset: 0x48ECB, size: 0x8, addend: 0x0, symName: __ZNSt3__16vectorI8TriangleNS_9allocatorIS1_EEE11__make_iterB7v160006EPS1_, symObjAddr: 0x96E0, symBinAddr: 0x10001C430, symSize: 0x34 }
  - { offsetInCU: 0x1889B, offset: 0x48EFF, size: 0x8, addend: 0x0, symName: __ZNSt3__111__wrap_iterIP8TriangleEC1B7v160006EPKvS2_, symObjAddr: 0x9714, symBinAddr: 0x10001C464, symSize: 0x3C }
  - { offsetInCU: 0x188E0, offset: 0x48F44, size: 0x8, addend: 0x0, symName: __ZNSt3__111__wrap_iterIP8TriangleEC2B7v160006EPKvS2_, symObjAddr: 0x9750, symBinAddr: 0x10001C4A0, symSize: 0x24 }
  - { offsetInCU: 0x18925, offset: 0x48F89, size: 0x8, addend: 0x0, symName: __ZNSt3__16vectorIjNS_9allocatorIjEEE11__make_iterB7v160006EPj, symObjAddr: 0x9774, symBinAddr: 0x10001C4C4, symSize: 0x34 }
  - { offsetInCU: 0x18959, offset: 0x48FBD, size: 0x8, addend: 0x0, symName: __ZNSt3__111__wrap_iterIPjEC1B7v160006EPKvS1_, symObjAddr: 0x97A8, symBinAddr: 0x10001C4F8, symSize: 0x3C }
  - { offsetInCU: 0x1899E, offset: 0x49002, size: 0x8, addend: 0x0, symName: __ZNSt3__111__wrap_iterIPjEC2B7v160006EPKvS1_, symObjAddr: 0x97E4, symBinAddr: 0x10001C534, symSize: 0x24 }
  - { offsetInCU: 0x189E3, offset: 0x49047, size: 0x8, addend: 0x0, symName: __ZNSt3__16vectorIjNS_9allocatorIjEEE5beginB7v160006Ev, symObjAddr: 0x9850, symBinAddr: 0x10001C5A0, symSize: 0x30 }
  - { offsetInCU: 0x18A0A, offset: 0x4906E, size: 0x8, addend: 0x0, symName: __ZNSt3__16vectorIjNS_9allocatorIjEEE9__end_capB7v160006Ev, symObjAddr: 0x98AC, symBinAddr: 0x10001C5FC, symSize: 0x28 }
  - { offsetInCU: 0x18A2F, offset: 0x49093, size: 0x8, addend: 0x0, symName: __ZNSt3__16vectorIjNS_9allocatorIjEEE18__construct_at_endIPKjLi0EEEvT_S7_m, symObjAddr: 0x9924, symBinAddr: 0x10001C674, symSize: 0x8C }
  - { offsetInCU: 0x18AA2, offset: 0x49106, size: 0x8, addend: 0x0, symName: __ZNSt3__16vectorIjNS_9allocatorIjEEE12__move_rangeEPjS4_S4_, symObjAddr: 0x99B0, symBinAddr: 0x10001C700, symSize: 0x12C }
  - { offsetInCU: 0x18B5F, offset: 0x491C3, size: 0x8, addend: 0x0, symName: __ZNKSt3__16vectorIjNS_9allocatorIjEEE11__recommendB7v160006Em, symObjAddr: 0x9B1C, symBinAddr: 0x10001C86C, symSize: 0xB4 }
  - { offsetInCU: 0x18BB3, offset: 0x49217, size: 0x8, addend: 0x0, symName: __ZNSt3__114__split_bufferIjRNS_9allocatorIjEEEC1EmmS3_, symObjAddr: 0x9BD0, symBinAddr: 0x10001C920, symSize: 0x44 }
  - { offsetInCU: 0x18C08, offset: 0x4926C, size: 0x8, addend: 0x0, symName: __ZNSt3__114__split_bufferIjRNS_9allocatorIjEEE18__construct_at_endIPKjEENS_9enable_ifIXsr27__is_cpp17_forward_iteratorIT_EE5valueEvE4typeES9_S9_, symObjAddr: 0x9C14, symBinAddr: 0x10001C964, symSize: 0xD8 }
  - { offsetInCU: 0x18C63, offset: 0x492C7, size: 0x8, addend: 0x0, symName: __ZNSt3__114__split_bufferIjRNS_9allocatorIjEEED1Ev, symObjAddr: 0x9E40, symBinAddr: 0x10001CB90, symSize: 0x2C }
  - { offsetInCU: 0x18C8E, offset: 0x492F2, size: 0x8, addend: 0x0, symName: __ZNKSt3__111__wrap_iterIPKjE4baseB7v160006Ev, symObjAddr: 0x9E6C, symBinAddr: 0x10001CBBC, symSize: 0x18 }
  - { offsetInCU: 0x18CB3, offset: 0x49317, size: 0x8, addend: 0x0, symName: __ZNSt3__117__compressed_pairIPjNS_9allocatorIjEEE5firstB7v160006Ev, symObjAddr: 0x9EAC, symBinAddr: 0x10001CBFC, symSize: 0x24 }
  - { offsetInCU: 0x18CD8, offset: 0x4933C, size: 0x8, addend: 0x0, symName: __ZNSt3__122__compressed_pair_elemIPjLi0ELb0EE5__getB7v160006Ev, symObjAddr: 0x9ED0, symBinAddr: 0x10001CC20, symSize: 0x14 }
  - { offsetInCU: 0x18D16, offset: 0x4937A, size: 0x8, addend: 0x0, symName: __ZNSt3__16vectorIjNS_9allocatorIjEEE21_ConstructTransactionC1B7v160006ERS3_m, symObjAddr: 0x9F20, symBinAddr: 0x10001CC70, symSize: 0x3C }
  - { offsetInCU: 0x18D5D, offset: 0x493C1, size: 0x8, addend: 0x0, symName: __ZNSt3__16vectorIjNS_9allocatorIjEEE21_ConstructTransactionD1B7v160006Ev, symObjAddr: 0x9F94, symBinAddr: 0x10001CCE4, symSize: 0x2C }
  - { offsetInCU: 0x18D86, offset: 0x493EA, size: 0x8, addend: 0x0, symName: __ZNSt3__16vectorIjNS_9allocatorIjEEE21_ConstructTransactionC2B7v160006ERS3_m, symObjAddr: 0x9FC0, symBinAddr: 0x10001CD10, symSize: 0x44 }
  - { offsetInCU: 0x18DCD, offset: 0x49431, size: 0x8, addend: 0x0, symName: __ZNSt3__16vectorIjNS_9allocatorIjEEE21_ConstructTransactionD2B7v160006Ev, symObjAddr: 0xA004, symBinAddr: 0x10001CD54, symSize: 0x20 }
  - { offsetInCU: 0x18DFB, offset: 0x4945F, size: 0x8, addend: 0x0, symName: __ZNSt3__116allocator_traitsINS_9allocatorIjEEE9constructB7v160006IjJjEvEEvRS2_PT_DpOT0_, symObjAddr: 0xA024, symBinAddr: 0x10001CD74, symSize: 0x34 }
  - { offsetInCU: 0x18E54, offset: 0x494B8, size: 0x8, addend: 0x0, symName: __ZNSt3__19allocatorIjE9constructB7v160006IjJjEEEvPT_DpOT0_, symObjAddr: 0xA098, symBinAddr: 0x10001CDE8, symSize: 0x28 }
  - { offsetInCU: 0x18ECE, offset: 0x49532, size: 0x8, addend: 0x0, symName: __ZNKSt3__123__move_backward_trivialclB7v160006IjjLi0EEENS_4pairIPT_PT0_EES4_S4_S6_, symObjAddr: 0xA25C, symBinAddr: 0x10001CFAC, symSize: 0x48 }
  - { offsetInCU: 0x18F36, offset: 0x4959A, size: 0x8, addend: 0x0, symName: __ZNSt3__14pairIPjS1_EC1B7v160006IRS1_S4_LPv0EEEOT_OT0_, symObjAddr: 0xA434, symBinAddr: 0x10001D184, symSize: 0x3C }
  - { offsetInCU: 0x18F94, offset: 0x495F8, size: 0x8, addend: 0x0, symName: __ZNSt3__14pairIPjS1_EC2B7v160006IRS1_S4_LPv0EEEOT_OT0_, symObjAddr: 0xA470, symBinAddr: 0x10001D1C0, symSize: 0x34 }
  - { offsetInCU: 0x18FF2, offset: 0x49656, size: 0x8, addend: 0x0, symName: __ZNSt3__118__unwrap_iter_implIPjLb1EE8__unwrapB7v160006ES1_, symObjAddr: 0xA4A4, symBinAddr: 0x10001D1F4, symSize: 0x24 }
  - { offsetInCU: 0x19019, offset: 0x4967D, size: 0x8, addend: 0x0, symName: __ZNSt3__14pairIPjS1_EC1B7v160006IS1_S1_LPv0EEEOT_OT0_, symObjAddr: 0xA4C8, symBinAddr: 0x10001D218, symSize: 0x3C }
  - { offsetInCU: 0x19077, offset: 0x496DB, size: 0x8, addend: 0x0, symName: __ZNSt3__14pairIPjS1_EC2B7v160006IS1_S1_LPv0EEEOT_OT0_, symObjAddr: 0xA504, symBinAddr: 0x10001D254, symSize: 0x34 }
  - { offsetInCU: 0x190D5, offset: 0x49739, size: 0x8, addend: 0x0, symName: __ZNSt3__118__unwrap_iter_implIPjLb1EE8__rewrapB7v160006ES1_S1_, symObjAddr: 0xA538, symBinAddr: 0x10001D288, symSize: 0x50 }
  - { offsetInCU: 0x1911E, offset: 0x49782, size: 0x8, addend: 0x0, symName: __ZNKSt3__114__copy_trivialclB7v160006IKjjLi0EEENS_4pairIPT_PT0_EES5_S5_S7_, symObjAddr: 0xA724, symBinAddr: 0x10001D474, symSize: 0x48 }
  - { offsetInCU: 0x191A4, offset: 0x49808, size: 0x8, addend: 0x0, symName: __ZNSt3__14pairIPKjS2_EC1B7v160006IS2_S2_LPv0EEEOT_OT0_, symObjAddr: 0xA82C, symBinAddr: 0x10001D57C, symSize: 0x3C }
  - { offsetInCU: 0x19202, offset: 0x49866, size: 0x8, addend: 0x0, symName: __ZNSt3__14pairIPKjS2_EC2B7v160006IS2_S2_LPv0EEEOT_OT0_, symObjAddr: 0xA868, symBinAddr: 0x10001D5B8, symSize: 0x34 }
  - { offsetInCU: 0x19260, offset: 0x498C4, size: 0x8, addend: 0x0, symName: __ZNSt3__118__unwrap_iter_implIPKjLb1EE8__unwrapB7v160006ES2_, symObjAddr: 0xA89C, symBinAddr: 0x10001D5EC, symSize: 0x24 }
  - { offsetInCU: 0x19287, offset: 0x498EB, size: 0x8, addend: 0x0, symName: __ZNSt3__14pairIPKjPjEC1B7v160006IRS2_S3_LPv0EEEOT_OT0_, symObjAddr: 0xA990, symBinAddr: 0x10001D6E0, symSize: 0x3C }
  - { offsetInCU: 0x192E5, offset: 0x49949, size: 0x8, addend: 0x0, symName: __ZNSt3__14pairIPKjPjEC2B7v160006IRS2_S3_LPv0EEEOT_OT0_, symObjAddr: 0xA9CC, symBinAddr: 0x10001D71C, symSize: 0x34 }
  - { offsetInCU: 0x19343, offset: 0x499A7, size: 0x8, addend: 0x0, symName: __ZNSt3__14pairIPKjPjEC1B7v160006IS2_S3_LPv0EEEOT_OT0_, symObjAddr: 0xAA00, symBinAddr: 0x10001D750, symSize: 0x3C }
  - { offsetInCU: 0x193A1, offset: 0x49A05, size: 0x8, addend: 0x0, symName: __ZNSt3__14pairIPKjPjEC2B7v160006IS2_S3_LPv0EEEOT_OT0_, symObjAddr: 0xAA3C, symBinAddr: 0x10001D78C, symSize: 0x34 }
  - { offsetInCU: 0x193FF, offset: 0x49A63, size: 0x8, addend: 0x0, symName: __ZNSt3__118__unwrap_iter_implIPKjLb1EE8__rewrapB7v160006ES2_S2_, symObjAddr: 0xAAAC, symBinAddr: 0x10001D7FC, symSize: 0x50 }
  - { offsetInCU: 0x1942F, offset: 0x49A93, size: 0x8, addend: 0x0, symName: __ZNKSt3__16vectorIjNS_9allocatorIjEEE8max_sizeEv, symObjAddr: 0xAAFC, symBinAddr: 0x10001D84C, symSize: 0x60 }
  - { offsetInCU: 0x19456, offset: 0x49ABA, size: 0x8, addend: 0x0, symName: __ZNKSt3__16vectorIjNS_9allocatorIjEEE20__throw_length_errorB7v160006Ev, symObjAddr: 0xAB5C, symBinAddr: 0x10001D8AC, symSize: 0x1C }
  - { offsetInCU: 0x19485, offset: 0x49AE9, size: 0x8, addend: 0x0, symName: __ZNSt3__116allocator_traitsINS_9allocatorIjEEE8max_sizeB7v160006IS2_vEEmRKS2_, symObjAddr: 0xAB78, symBinAddr: 0x10001D8C8, symSize: 0x24 }
  - { offsetInCU: 0x194B3, offset: 0x49B17, size: 0x8, addend: 0x0, symName: __ZNKSt3__16vectorIjNS_9allocatorIjEEE7__allocB7v160006Ev, symObjAddr: 0xAB9C, symBinAddr: 0x10001D8EC, symSize: 0x28 }
  - { offsetInCU: 0x194D8, offset: 0x49B3C, size: 0x8, addend: 0x0, symName: __ZNKSt3__19allocatorIjE8max_sizeB7v160006Ev, symObjAddr: 0xABC4, symBinAddr: 0x10001D914, symSize: 0x14 }
  - { offsetInCU: 0x194FD, offset: 0x49B61, size: 0x8, addend: 0x0, symName: __ZNKSt3__117__compressed_pairIPjNS_9allocatorIjEEE6secondB7v160006Ev, symObjAddr: 0xABD8, symBinAddr: 0x10001D928, symSize: 0x24 }
  - { offsetInCU: 0x19522, offset: 0x49B86, size: 0x8, addend: 0x0, symName: __ZNKSt3__122__compressed_pair_elemINS_9allocatorIjEELi1ELb1EE5__getB7v160006Ev, symObjAddr: 0xABFC, symBinAddr: 0x10001D94C, symSize: 0x14 }
  - { offsetInCU: 0x19547, offset: 0x49BAB, size: 0x8, addend: 0x0, symName: __ZNSt3__114__split_bufferIjRNS_9allocatorIjEEEC2EmmS3_, symObjAddr: 0xAC10, symBinAddr: 0x10001D960, symSize: 0xD4 }
  - { offsetInCU: 0x195BA, offset: 0x49C1E, size: 0x8, addend: 0x0, symName: __ZNSt3__117__compressed_pairIPjRNS_9allocatorIjEEEC1B7v160006IDnS4_EEOT_OT0_, symObjAddr: 0xACE4, symBinAddr: 0x10001DA34, symSize: 0x3C }
  - { offsetInCU: 0x19611, offset: 0x49C75, size: 0x8, addend: 0x0, symName: __ZNSt3__114__split_bufferIjRNS_9allocatorIjEEE7__allocB7v160006Ev, symObjAddr: 0xAD60, symBinAddr: 0x10001DAB0, symSize: 0x28 }
  - { offsetInCU: 0x19636, offset: 0x49C9A, size: 0x8, addend: 0x0, symName: __ZNSt3__114__split_bufferIjRNS_9allocatorIjEEE9__end_capB7v160006Ev, symObjAddr: 0xAD88, symBinAddr: 0x10001DAD8, symSize: 0x28 }
  - { offsetInCU: 0x1965B, offset: 0x49CBF, size: 0x8, addend: 0x0, symName: __ZNSt3__117__compressed_pairIPjRNS_9allocatorIjEEEC2B7v160006IDnS4_EEOT_OT0_, symObjAddr: 0xADB0, symBinAddr: 0x10001DB00, symSize: 0x48 }
  - { offsetInCU: 0x196B2, offset: 0x49D16, size: 0x8, addend: 0x0, symName: __ZNSt3__122__compressed_pair_elemIRNS_9allocatorIjEELi1ELb0EEC2B7v160006IS3_vEEOT_, symObjAddr: 0xADF8, symBinAddr: 0x10001DB48, symSize: 0x20 }
  - { offsetInCU: 0x196F4, offset: 0x49D58, size: 0x8, addend: 0x0, symName: __ZNSt3__19allocatorIjE8allocateB7v160006Em, symObjAddr: 0xAE18, symBinAddr: 0x10001DB68, symSize: 0x58 }
  - { offsetInCU: 0x19727, offset: 0x49D8B, size: 0x8, addend: 0x0, symName: __ZNSt3__117__compressed_pairIPjRNS_9allocatorIjEEE6secondB7v160006Ev, symObjAddr: 0xAE70, symBinAddr: 0x10001DBC0, symSize: 0x28 }
  - { offsetInCU: 0x1974C, offset: 0x49DB0, size: 0x8, addend: 0x0, symName: __ZNSt3__122__compressed_pair_elemIRNS_9allocatorIjEELi1ELb0EE5__getB7v160006Ev, symObjAddr: 0xAE98, symBinAddr: 0x10001DBE8, symSize: 0x18 }
  - { offsetInCU: 0x19771, offset: 0x49DD5, size: 0x8, addend: 0x0, symName: __ZNSt3__117__compressed_pairIPjRNS_9allocatorIjEEE5firstB7v160006Ev, symObjAddr: 0xAEB0, symBinAddr: 0x10001DC00, symSize: 0x24 }
  - { offsetInCU: 0x197A0, offset: 0x49E04, size: 0x8, addend: 0x0, symName: __ZNSt3__114__split_bufferIjRNS_9allocatorIjEEE21_ConstructTransactionC1B7v160006EPPjm, symObjAddr: 0xAED4, symBinAddr: 0x10001DC24, symSize: 0x3C }
  - { offsetInCU: 0x197E5, offset: 0x49E49, size: 0x8, addend: 0x0, symName: __ZNSt3__116allocator_traitsINS_9allocatorIjEEE9constructB7v160006IjJRKjEvEEvRS2_PT_DpOT0_, symObjAddr: 0xAF10, symBinAddr: 0x10001DC60, symSize: 0x34 }
  - { offsetInCU: 0x1983E, offset: 0x49EA2, size: 0x8, addend: 0x0, symName: __ZNSt3__114__split_bufferIjRNS_9allocatorIjEEE21_ConstructTransactionD1B7v160006Ev, symObjAddr: 0xAF44, symBinAddr: 0x10001DC94, symSize: 0x2C }
  - { offsetInCU: 0x19867, offset: 0x49ECB, size: 0x8, addend: 0x0, symName: __ZNSt3__114__split_bufferIjRNS_9allocatorIjEEE21_ConstructTransactionC2B7v160006EPPjm, symObjAddr: 0xAF70, symBinAddr: 0x10001DCC0, symSize: 0x44 }
  - { offsetInCU: 0x198AC, offset: 0x49F10, size: 0x8, addend: 0x0, symName: __ZNSt3__19allocatorIjE9constructB7v160006IjJRKjEEEvPT_DpOT0_, symObjAddr: 0xAFB4, symBinAddr: 0x10001DD04, symSize: 0x28 }
  - { offsetInCU: 0x19903, offset: 0x49F67, size: 0x8, addend: 0x0, symName: __ZNSt3__114__split_bufferIjRNS_9allocatorIjEEE21_ConstructTransactionD2B7v160006Ev, symObjAddr: 0xAFDC, symBinAddr: 0x10001DD2C, symSize: 0x20 }
  - { offsetInCU: 0x1992C, offset: 0x49F90, size: 0x8, addend: 0x0, symName: __ZNSt3__116reverse_iteratorIPjEC1B7v160006ES1_, symObjAddr: 0xB074, symBinAddr: 0x10001DDC4, symSize: 0x34 }
  - { offsetInCU: 0x19963, offset: 0x49FC7, size: 0x8, addend: 0x0, symName: __ZNKSt3__116reverse_iteratorIPjE4baseB7v160006Ev, symObjAddr: 0xB0A8, symBinAddr: 0x10001DDF8, symSize: 0x18 }
  - { offsetInCU: 0x19988, offset: 0x49FEC, size: 0x8, addend: 0x0, symName: __ZNKSt3__16vectorIjNS_9allocatorIjEEE14__annotate_newB7v160006Em, symObjAddr: 0xB134, symBinAddr: 0x10001DE84, symSize: 0xAC }
  - { offsetInCU: 0x199D5, offset: 0x4A039, size: 0x8, addend: 0x0, symName: __ZNKSt3__111__move_loopINS_17_ClassicAlgPolicyEEclB7v160006INS_16reverse_iteratorIPjEES6_S6_EENS_4pairIT_T1_EES8_T0_S9_, symObjAddr: 0xB4E0, symBinAddr: 0x10001E230, symSize: 0xA0 }
  - { offsetInCU: 0x19A3F, offset: 0x4A0A3, size: 0x8, addend: 0x0, symName: __ZNSt3__18_IterOpsINS_17_ClassicAlgPolicyEE11__iter_moveB7v160006IRNS_16reverse_iteratorIPjEEEENS_9enable_ifIXsr12is_referenceIDTdeclsr3stdE7declvalIRT_EEEEE5valueEDTclsr3stdE4movedeclsr3stdE7declvalISA_EEEEE4typeEOS9_, symObjAddr: 0xB714, symBinAddr: 0x10001E464, symSize: 0x28 }
  - { offsetInCU: 0x19A6A, offset: 0x4A0CE, size: 0x8, addend: 0x0, symName: __ZNKSt3__116reverse_iteratorIPjEdeB7v160006Ev, symObjAddr: 0xB73C, symBinAddr: 0x10001E48C, symSize: 0x28 }
  - { offsetInCU: 0x19A9D, offset: 0x4A101, size: 0x8, addend: 0x0, symName: __ZNSt3__116reverse_iteratorIPjEppB7v160006Ev, symObjAddr: 0xB764, symBinAddr: 0x10001E4B4, symSize: 0x20 }
  - { offsetInCU: 0x19AC2, offset: 0x4A126, size: 0x8, addend: 0x0, symName: __ZNSt3__18_IterOpsINS_17_ClassicAlgPolicyEE25__validate_iter_referenceB7v160006IRNS_16reverse_iteratorIPjEEEEvv, symObjAddr: 0xB784, symBinAddr: 0x10001E4D4, symSize: 0x4 }
  - { offsetInCU: 0x19AE0, offset: 0x4A144, size: 0x8, addend: 0x0, symName: __ZNSt3__118__unwrap_iter_implINS_16reverse_iteratorIPjEELb0EE8__unwrapB7v160006ES3_, symObjAddr: 0xB788, symBinAddr: 0x10001E4D8, symSize: 0x24 }
  - { offsetInCU: 0x19B08, offset: 0x4A16C, size: 0x8, addend: 0x0, symName: __ZNSt3__14pairINS_16reverse_iteratorIPjEES3_EC1B7v160006IS3_S3_LPv0EEEOT_OT0_, symObjAddr: 0xB7AC, symBinAddr: 0x10001E4FC, symSize: 0x3C }
  - { offsetInCU: 0x19B66, offset: 0x4A1CA, size: 0x8, addend: 0x0, symName: __ZNSt3__14pairINS_16reverse_iteratorIPjEES3_EC2B7v160006IS3_S3_LPv0EEEOT_OT0_, symObjAddr: 0xB7E8, symBinAddr: 0x10001E538, symSize: 0x34 }
  - { offsetInCU: 0x19BC4, offset: 0x4A228, size: 0x8, addend: 0x0, symName: __ZNSt3__118__unwrap_iter_implINS_16reverse_iteratorIPjEELb0EE8__rewrapB7v160006ES3_S3_, symObjAddr: 0xB81C, symBinAddr: 0x10001E56C, symSize: 0x2C }
  - { offsetInCU: 0x19BF2, offset: 0x4A256, size: 0x8, addend: 0x0, symName: __ZNSt3__116reverse_iteratorIPjEC2B7v160006ES1_, symObjAddr: 0xB848, symBinAddr: 0x10001E598, symSize: 0x28 }
  - { offsetInCU: 0x19C33, offset: 0x4A297, size: 0x8, addend: 0x0, symName: __ZNKSt3__114__move_trivialclB7v160006IjjLi0EEENS_4pairIPT_PT0_EES4_S4_S6_, symObjAddr: 0xB9EC, symBinAddr: 0x10001E73C, symSize: 0x48 }
  - { offsetInCU: 0x19C9B, offset: 0x4A2FF, size: 0x8, addend: 0x0, symName: __ZNSt3__14pairIPjS1_EC1B7v160006IRS1_S1_LPv0EEEOT_OT0_, symObjAddr: 0xBAF0, symBinAddr: 0x10001E840, symSize: 0x3C }
  - { offsetInCU: 0x19CF9, offset: 0x4A35D, size: 0x8, addend: 0x0, symName: __ZNSt3__14pairIPjS1_EC2B7v160006IRS1_S1_LPv0EEEOT_OT0_, symObjAddr: 0xBB2C, symBinAddr: 0x10001E87C, symSize: 0x34 }
  - { offsetInCU: 0x19D57, offset: 0x4A3BB, size: 0x8, addend: 0x0, symName: __ZNSt3__114__split_bufferIjRNS_9allocatorIjEEED2Ev, symObjAddr: 0xBB60, symBinAddr: 0x10001E8B0, symSize: 0x8C }
  - { offsetInCU: 0x19D82, offset: 0x4A3E6, size: 0x8, addend: 0x0, symName: __ZNSt3__114__split_bufferIjRNS_9allocatorIjEEE5clearB7v160006Ev, symObjAddr: 0xBBEC, symBinAddr: 0x10001E93C, symSize: 0x28 }
  - { offsetInCU: 0x19DA7, offset: 0x4A40B, size: 0x8, addend: 0x0, symName: __ZNKSt3__114__split_bufferIjRNS_9allocatorIjEEE8capacityB7v160006Ev, symObjAddr: 0xBC14, symBinAddr: 0x10001E964, symSize: 0x40 }
  - { offsetInCU: 0x19DCC, offset: 0x4A430, size: 0x8, addend: 0x0, symName: __ZNSt3__114__split_bufferIjRNS_9allocatorIjEEE17__destruct_at_endB7v160006EPj, symObjAddr: 0xBC54, symBinAddr: 0x10001E9A4, symSize: 0x2C }
  - { offsetInCU: 0x19DFF, offset: 0x4A463, size: 0x8, addend: 0x0, symName: __ZNSt3__114__split_bufferIjRNS_9allocatorIjEEE17__destruct_at_endB7v160006EPjNS_17integral_constantIbLb0EEE, symObjAddr: 0xBC80, symBinAddr: 0x10001E9D0, symSize: 0x80 }
  - { offsetInCU: 0x19E3F, offset: 0x4A4A3, size: 0x8, addend: 0x0, symName: __ZNKSt3__114__split_bufferIjRNS_9allocatorIjEEE9__end_capB7v160006Ev, symObjAddr: 0xBD00, symBinAddr: 0x10001EA50, symSize: 0x28 }
  - { offsetInCU: 0x19E64, offset: 0x4A4C8, size: 0x8, addend: 0x0, symName: __ZNKSt3__117__compressed_pairIPjRNS_9allocatorIjEEE5firstB7v160006Ev, symObjAddr: 0xBD28, symBinAddr: 0x10001EA78, symSize: 0x24 }
...
